
a.exe：     文件格式 pei-i386


Disassembly of section .text:

00401000 <___mingw_invalidParameterHandler>:
  401000:	c3                   	ret
  401001:	8d b4 26 00 00 00 00 	lea    0x0(%esi,%eiz,1),%esi
  401008:	8d b4 26 00 00 00 00 	lea    0x0(%esi,%eiz,1),%esi
  40100f:	90                   	nop

00401010 <_pre_c_init>:
  401010:	83 ec 1c             	sub    $0x1c,%esp
  401013:	31 c0                	xor    %eax,%eax
  401015:	66 81 3d 00 00 40 00 	cmpw   $0x5a4d,0x400000
  40101c:	4d 5a 
  40101e:	c7 05 5c d0 40 00 01 	movl   $0x1,0x40d05c
  401025:	00 00 00 
  401028:	c7 05 58 d0 40 00 01 	movl   $0x1,0x40d058
  40102f:	00 00 00 
  401032:	c7 05 54 d0 40 00 01 	movl   $0x1,0x40d054
  401039:	00 00 00 
  40103c:	75 18                	jne    401056 <_pre_c_init+0x46>
  40103e:	8b 15 3c 00 40 00    	mov    0x40003c,%edx
  401044:	81 ba 00 00 40 00 50 	cmpl   $0x4550,0x400000(%edx)
  40104b:	45 00 00 
  40104e:	8d 8a 00 00 40 00    	lea    0x400000(%edx),%ecx
  401054:	74 5a                	je     4010b0 <_pre_c_init+0xa0>
  401056:	a3 14 d0 40 00       	mov    %eax,0x40d014
  40105b:	a1 68 d0 40 00       	mov    0x40d068,%eax
  401060:	85 c0                	test   %eax,%eax
  401062:	74 3c                	je     4010a0 <_pre_c_init+0x90>
  401064:	c7 04 24 02 00 00 00 	movl   $0x2,(%esp)
  40106b:	e8 d0 6f 00 00       	call   408040 <___set_app_type>
  401070:	e8 c3 6f 00 00       	call   408038 <___p__fmode>
  401075:	8b 15 7c d0 40 00    	mov    0x40d07c,%edx
  40107b:	89 10                	mov    %edx,(%eax)
  40107d:	e8 ae 6f 00 00       	call   408030 <___p__commode>
  401082:	8b 15 64 d0 40 00    	mov    0x40d064,%edx
  401088:	89 10                	mov    %edx,(%eax)
  40108a:	e8 41 06 00 00       	call   4016d0 <__setargv>
  40108f:	83 3d 1c 90 40 00 01 	cmpl   $0x1,0x40901c
  401096:	74 48                	je     4010e0 <_pre_c_init+0xd0>
  401098:	31 c0                	xor    %eax,%eax
  40109a:	83 c4 1c             	add    $0x1c,%esp
  40109d:	c3                   	ret
  40109e:	66 90                	xchg   %ax,%ax
  4010a0:	c7 04 24 01 00 00 00 	movl   $0x1,(%esp)
  4010a7:	e8 94 6f 00 00       	call   408040 <___set_app_type>
  4010ac:	eb c2                	jmp    401070 <_pre_c_init+0x60>
  4010ae:	66 90                	xchg   %ax,%ax
  4010b0:	0f b7 51 18          	movzwl 0x18(%ecx),%edx
  4010b4:	66 81 fa 0b 01       	cmp    $0x10b,%dx
  4010b9:	74 3d                	je     4010f8 <_pre_c_init+0xe8>
  4010bb:	66 81 fa 0b 02       	cmp    $0x20b,%dx
  4010c0:	75 94                	jne    401056 <_pre_c_init+0x46>
  4010c2:	83 b9 84 00 00 00 0e 	cmpl   $0xe,0x84(%ecx)
  4010c9:	76 8b                	jbe    401056 <_pre_c_init+0x46>
  4010cb:	8b 91 f8 00 00 00    	mov    0xf8(%ecx),%edx
  4010d1:	31 c0                	xor    %eax,%eax
  4010d3:	85 d2                	test   %edx,%edx
  4010d5:	0f 95 c0             	setne  %al
  4010d8:	e9 79 ff ff ff       	jmp    401056 <_pre_c_init+0x46>
  4010dd:	8d 76 00             	lea    0x0(%esi),%esi
  4010e0:	c7 04 24 e0 17 40 00 	movl   $0x4017e0,(%esp)
  4010e7:	e8 a4 0c 00 00       	call   401d90 <___mingw_setusermatherr>
  4010ec:	31 c0                	xor    %eax,%eax
  4010ee:	83 c4 1c             	add    $0x1c,%esp
  4010f1:	c3                   	ret
  4010f2:	8d b6 00 00 00 00    	lea    0x0(%esi),%esi
  4010f8:	83 79 74 0e          	cmpl   $0xe,0x74(%ecx)
  4010fc:	0f 86 54 ff ff ff    	jbe    401056 <_pre_c_init+0x46>
  401102:	8b 89 e8 00 00 00    	mov    0xe8(%ecx),%ecx
  401108:	31 c0                	xor    %eax,%eax
  40110a:	85 c9                	test   %ecx,%ecx
  40110c:	0f 95 c0             	setne  %al
  40110f:	e9 42 ff ff ff       	jmp    401056 <_pre_c_init+0x46>
  401114:	8d b4 26 00 00 00 00 	lea    0x0(%esi,%eiz,1),%esi
  40111b:	8d 74 26 00          	lea    0x0(%esi,%eiz,1),%esi
  40111f:	90                   	nop

00401120 <_pre_cpp_init>:
  401120:	83 ec 2c             	sub    $0x2c,%esp
  401123:	a1 50 d0 40 00       	mov    0x40d050,%eax
  401128:	c7 44 24 10 0c d0 40 	movl   $0x40d00c,0x10(%esp)
  40112f:	00 
  401130:	a3 0c d0 40 00       	mov    %eax,0x40d00c
  401135:	a1 14 90 40 00       	mov    0x409014,%eax
  40113a:	c7 44 24 08 1c d0 40 	movl   $0x40d01c,0x8(%esp)
  401141:	00 
  401142:	89 44 24 0c          	mov    %eax,0xc(%esp)
  401146:	c7 44 24 04 20 d0 40 	movl   $0x40d020,0x4(%esp)
  40114d:	00 
  40114e:	c7 04 24 24 d0 40 00 	movl   $0x40d024,(%esp)
  401155:	e8 c6 6e 00 00       	call   408020 <___getmainargs>
  40115a:	83 c4 2c             	add    $0x2c,%esp
  40115d:	c3                   	ret
  40115e:	66 90                	xchg   %ax,%ax

00401160 <___tmainCRTStartup>:
  401160:	8d 4c 24 04          	lea    0x4(%esp),%ecx
  401164:	83 e4 f0             	and    $0xfffffff0,%esp
  401167:	31 c0                	xor    %eax,%eax
  401169:	ff 71 fc             	push   -0x4(%ecx)
  40116c:	55                   	push   %ebp
  40116d:	89 e5                	mov    %esp,%ebp
  40116f:	57                   	push   %edi
  401170:	56                   	push   %esi
  401171:	8d 55 a4             	lea    -0x5c(%ebp),%edx
  401174:	53                   	push   %ebx
  401175:	89 d7                	mov    %edx,%edi
  401177:	51                   	push   %ecx
  401178:	b9 11 00 00 00       	mov    $0x11,%ecx
  40117d:	83 ec 78             	sub    $0x78,%esp
  401180:	8b 35 68 d0 40 00    	mov    0x40d068,%esi
  401186:	f3 ab                	rep stos %eax,%es:(%edi)
  401188:	85 f6                	test   %esi,%esi
  40118a:	0f 85 a0 02 00 00    	jne    401430 <___tmainCRTStartup+0x2d0>
  401190:	64 a1 18 00 00 00    	mov    %fs:0x18,%eax
  401196:	8b 35 58 e1 40 00    	mov    0x40e158,%esi
  40119c:	8b 78 04             	mov    0x4(%eax),%edi
  40119f:	31 db                	xor    %ebx,%ebx
  4011a1:	eb 19                	jmp    4011bc <___tmainCRTStartup+0x5c>
  4011a3:	8d 74 26 00          	lea    0x0(%esi,%eiz,1),%esi
  4011a7:	90                   	nop
  4011a8:	39 c7                	cmp    %eax,%edi
  4011aa:	0f 84 18 02 00 00    	je     4013c8 <___tmainCRTStartup+0x268>
  4011b0:	c7 04 24 e8 03 00 00 	movl   $0x3e8,(%esp)
  4011b7:	ff d6                	call   *%esi
  4011b9:	83 ec 04             	sub    $0x4,%esp
  4011bc:	89 d8                	mov    %ebx,%eax
  4011be:	f0 0f b1 3d 48 d0 40 	lock cmpxchg %edi,0x40d048
  4011c5:	00 
  4011c6:	85 c0                	test   %eax,%eax
  4011c8:	75 de                	jne    4011a8 <___tmainCRTStartup+0x48>
  4011ca:	a1 4c d0 40 00       	mov    0x40d04c,%eax
  4011cf:	31 db                	xor    %ebx,%ebx
  4011d1:	83 f8 01             	cmp    $0x1,%eax
  4011d4:	0f 84 01 02 00 00    	je     4013db <___tmainCRTStartup+0x27b>
  4011da:	a1 4c d0 40 00       	mov    0x40d04c,%eax
  4011df:	85 c0                	test   %eax,%eax
  4011e1:	0f 84 79 02 00 00    	je     401460 <___tmainCRTStartup+0x300>
  4011e7:	c7 05 10 d0 40 00 01 	movl   $0x1,0x40d010
  4011ee:	00 00 00 
  4011f1:	a1 4c d0 40 00       	mov    0x40d04c,%eax
  4011f6:	83 f8 01             	cmp    $0x1,%eax
  4011f9:	0f 84 f6 01 00 00    	je     4013f5 <___tmainCRTStartup+0x295>
  4011ff:	85 db                	test   %ebx,%ebx
  401201:	0f 84 14 02 00 00    	je     40141b <___tmainCRTStartup+0x2bb>
  401207:	a1 4c a0 40 00       	mov    0x40a04c,%eax
  40120c:	85 c0                	test   %eax,%eax
  40120e:	74 1c                	je     40122c <___tmainCRTStartup+0xcc>
  401210:	c7 44 24 08 00 00 00 	movl   $0x0,0x8(%esp)
  401217:	00 
  401218:	c7 44 24 04 02 00 00 	movl   $0x2,0x4(%esp)
  40121f:	00 
  401220:	c7 04 24 00 00 00 00 	movl   $0x0,(%esp)
  401227:	ff d0                	call   *%eax
  401229:	83 ec 0c             	sub    $0xc,%esp
  40122c:	e8 ff 07 00 00       	call   401a30 <__pei386_runtime_relocator>
  401231:	c7 04 24 a0 1d 40 00 	movl   $0x401da0,(%esp)
  401238:	ff 15 54 e1 40 00    	call   *0x40e154
  40123e:	83 ec 04             	sub    $0x4,%esp
  401241:	a3 80 d0 40 00       	mov    %eax,0x40d080
  401246:	c7 04 24 00 10 40 00 	movl   $0x401000,(%esp)
  40124d:	e8 fe 67 00 00       	call   407a50 <__set_invalid_parameter_handler>
  401252:	e8 09 06 00 00       	call   401860 <__fpreset>
  401257:	c7 05 08 d0 40 00 00 	movl   $0x400000,0x40d008
  40125e:	00 40 00 
  401261:	e8 c2 6d 00 00       	call   408028 <___p__acmdln>
  401266:	31 c9                	xor    %ecx,%ecx
  401268:	8b 00                	mov    (%eax),%eax
  40126a:	85 c0                	test   %eax,%eax
  40126c:	75 13                	jne    401281 <___tmainCRTStartup+0x121>
  40126e:	eb 4d                	jmp    4012bd <___tmainCRTStartup+0x15d>
  401270:	84 d2                	test   %dl,%dl
  401272:	74 44                	je     4012b8 <___tmainCRTStartup+0x158>
  401274:	83 e1 01             	and    $0x1,%ecx
  401277:	74 27                	je     4012a0 <___tmainCRTStartup+0x140>
  401279:	b9 01 00 00 00       	mov    $0x1,%ecx
  40127e:	83 c0 01             	add    $0x1,%eax
  401281:	0f b6 10             	movzbl (%eax),%edx
  401284:	80 fa 20             	cmp    $0x20,%dl
  401287:	7e e7                	jle    401270 <___tmainCRTStartup+0x110>
  401289:	89 cb                	mov    %ecx,%ebx
  40128b:	83 f3 01             	xor    $0x1,%ebx
  40128e:	80 fa 22             	cmp    $0x22,%dl
  401291:	0f 44 cb             	cmove  %ebx,%ecx
  401294:	eb e8                	jmp    40127e <___tmainCRTStartup+0x11e>
  401296:	8d b4 26 00 00 00 00 	lea    0x0(%esi,%eiz,1),%esi
  40129d:	8d 76 00             	lea    0x0(%esi),%esi
  4012a0:	84 d2                	test   %dl,%dl
  4012a2:	74 14                	je     4012b8 <___tmainCRTStartup+0x158>
  4012a4:	8d 74 26 00          	lea    0x0(%esi,%eiz,1),%esi
  4012a8:	0f b6 50 01          	movzbl 0x1(%eax),%edx
  4012ac:	83 c0 01             	add    $0x1,%eax
  4012af:	84 d2                	test   %dl,%dl
  4012b1:	74 05                	je     4012b8 <___tmainCRTStartup+0x158>
  4012b3:	80 fa 20             	cmp    $0x20,%dl
  4012b6:	7e f0                	jle    4012a8 <___tmainCRTStartup+0x148>
  4012b8:	a3 04 d0 40 00       	mov    %eax,0x40d004
  4012bd:	8b 1d 68 d0 40 00    	mov    0x40d068,%ebx
  4012c3:	85 db                	test   %ebx,%ebx
  4012c5:	74 14                	je     4012db <___tmainCRTStartup+0x17b>
  4012c7:	b8 0a 00 00 00       	mov    $0xa,%eax
  4012cc:	f6 45 d0 01          	testb  $0x1,-0x30(%ebp)
  4012d0:	0f 85 e2 00 00 00    	jne    4013b8 <___tmainCRTStartup+0x258>
  4012d6:	a3 00 90 40 00       	mov    %eax,0x409000
  4012db:	8b 1d 24 d0 40 00    	mov    0x40d024,%ebx
  4012e1:	8d 34 9d 04 00 00 00 	lea    0x4(,%ebx,4),%esi
  4012e8:	89 34 24             	mov    %esi,(%esp)
  4012eb:	e8 d8 6d 00 00       	call   4080c8 <_malloc>
  4012f0:	8b 15 20 d0 40 00    	mov    0x40d020,%edx
  4012f6:	89 45 90             	mov    %eax,-0x70(%ebp)
  4012f9:	85 db                	test   %ebx,%ebx
  4012fb:	0f 8e 82 01 00 00    	jle    401483 <___tmainCRTStartup+0x323>
  401301:	89 c3                	mov    %eax,%ebx
  401303:	8d 46 fc             	lea    -0x4(%esi),%eax
  401306:	89 d7                	mov    %edx,%edi
  401308:	89 45 8c             	mov    %eax,-0x74(%ebp)
  40130b:	01 d0                	add    %edx,%eax
  40130d:	89 45 94             	mov    %eax,-0x6c(%ebp)
  401310:	8b 07                	mov    (%edi),%eax
  401312:	83 c3 04             	add    $0x4,%ebx
  401315:	83 c7 04             	add    $0x4,%edi
  401318:	89 04 24             	mov    %eax,(%esp)
  40131b:	e8 d0 6d 00 00       	call   4080f0 <_strlen>
  401320:	8d 70 01             	lea    0x1(%eax),%esi
  401323:	89 34 24             	mov    %esi,(%esp)
  401326:	e8 9d 6d 00 00       	call   4080c8 <_malloc>
  40132b:	89 43 fc             	mov    %eax,-0x4(%ebx)
  40132e:	8b 4f fc             	mov    -0x4(%edi),%ecx
  401331:	89 74 24 08          	mov    %esi,0x8(%esp)
  401335:	89 4c 24 04          	mov    %ecx,0x4(%esp)
  401339:	89 04 24             	mov    %eax,(%esp)
  40133c:	e8 8f 6d 00 00       	call   4080d0 <_memcpy>
  401341:	39 7d 94             	cmp    %edi,-0x6c(%ebp)
  401344:	75 ca                	jne    401310 <___tmainCRTStartup+0x1b0>
  401346:	8b 45 8c             	mov    -0x74(%ebp),%eax
  401349:	03 45 90             	add    -0x70(%ebp),%eax
  40134c:	c7 00 00 00 00 00    	movl   $0x0,(%eax)
  401352:	8b 45 90             	mov    -0x70(%ebp),%eax
  401355:	a3 20 d0 40 00       	mov    %eax,0x40d020
  40135a:	e8 51 03 00 00       	call   4016b0 <___main>
  40135f:	a1 1c d0 40 00       	mov    0x40d01c,%eax
  401364:	8b 15 74 e1 40 00    	mov    0x40e174,%edx
  40136a:	89 02                	mov    %eax,(%edx)
  40136c:	89 44 24 08          	mov    %eax,0x8(%esp)
  401370:	a1 20 d0 40 00       	mov    0x40d020,%eax
  401375:	89 44 24 04          	mov    %eax,0x4(%esp)
  401379:	a1 24 d0 40 00       	mov    0x40d024,%eax
  40137e:	89 04 24             	mov    %eax,(%esp)
  401381:	e8 66 02 00 00       	call   4015ec <_main>
  401386:	8b 0d 14 d0 40 00    	mov    0x40d014,%ecx
  40138c:	a3 18 d0 40 00       	mov    %eax,0x40d018
  401391:	85 c9                	test   %ecx,%ecx
  401393:	0f 84 f2 00 00 00    	je     40148b <___tmainCRTStartup+0x32b>
  401399:	8b 15 10 d0 40 00    	mov    0x40d010,%edx
  40139f:	85 d2                	test   %edx,%edx
  4013a1:	0f 84 a1 00 00 00    	je     401448 <___tmainCRTStartup+0x2e8>
  4013a7:	8d 65 f0             	lea    -0x10(%ebp),%esp
  4013aa:	59                   	pop    %ecx
  4013ab:	5b                   	pop    %ebx
  4013ac:	5e                   	pop    %esi
  4013ad:	5f                   	pop    %edi
  4013ae:	5d                   	pop    %ebp
  4013af:	8d 61 fc             	lea    -0x4(%ecx),%esp
  4013b2:	c3                   	ret
  4013b3:	8d 74 26 00          	lea    0x0(%esi,%eiz,1),%esi
  4013b7:	90                   	nop
  4013b8:	0f b7 45 d4          	movzwl -0x2c(%ebp),%eax
  4013bc:	e9 15 ff ff ff       	jmp    4012d6 <___tmainCRTStartup+0x176>
  4013c1:	8d b4 26 00 00 00 00 	lea    0x0(%esi,%eiz,1),%esi
  4013c8:	a1 4c d0 40 00       	mov    0x40d04c,%eax
  4013cd:	bb 01 00 00 00       	mov    $0x1,%ebx
  4013d2:	83 f8 01             	cmp    $0x1,%eax
  4013d5:	0f 85 ff fd ff ff    	jne    4011da <___tmainCRTStartup+0x7a>
  4013db:	c7 04 24 1f 00 00 00 	movl   $0x1f,(%esp)
  4013e2:	e8 69 6c 00 00       	call   408050 <__amsg_exit>
  4013e7:	a1 4c d0 40 00       	mov    0x40d04c,%eax
  4013ec:	83 f8 01             	cmp    $0x1,%eax
  4013ef:	0f 85 0a fe ff ff    	jne    4011ff <___tmainCRTStartup+0x9f>
  4013f5:	c7 44 24 04 08 f0 40 	movl   $0x40f008,0x4(%esp)
  4013fc:	00 
  4013fd:	c7 04 24 00 f0 40 00 	movl   $0x40f000,(%esp)
  401404:	e8 5f 6c 00 00       	call   408068 <__initterm>
  401409:	c7 05 4c d0 40 00 02 	movl   $0x2,0x40d04c
  401410:	00 00 00 
  401413:	85 db                	test   %ebx,%ebx
  401415:	0f 85 ec fd ff ff    	jne    401207 <___tmainCRTStartup+0xa7>
  40141b:	87 1d 48 d0 40 00    	xchg   %ebx,0x40d048
  401421:	e9 e1 fd ff ff       	jmp    401207 <___tmainCRTStartup+0xa7>
  401426:	8d b4 26 00 00 00 00 	lea    0x0(%esi,%eiz,1),%esi
  40142d:	8d 76 00             	lea    0x0(%esi),%esi
  401430:	89 14 24             	mov    %edx,(%esp)
  401433:	ff 15 3c e1 40 00    	call   *0x40e13c
  401439:	83 ec 04             	sub    $0x4,%esp
  40143c:	e9 4f fd ff ff       	jmp    401190 <___tmainCRTStartup+0x30>
  401441:	8d b4 26 00 00 00 00 	lea    0x0(%esi,%eiz,1),%esi
  401448:	e8 0b 6c 00 00       	call   408058 <__cexit>
  40144d:	a1 18 d0 40 00       	mov    0x40d018,%eax
  401452:	8d 65 f0             	lea    -0x10(%ebp),%esp
  401455:	59                   	pop    %ecx
  401456:	5b                   	pop    %ebx
  401457:	5e                   	pop    %esi
  401458:	5f                   	pop    %edi
  401459:	5d                   	pop    %ebp
  40145a:	8d 61 fc             	lea    -0x4(%ecx),%esp
  40145d:	c3                   	ret
  40145e:	66 90                	xchg   %ax,%ax
  401460:	c7 44 24 04 14 f0 40 	movl   $0x40f014,0x4(%esp)
  401467:	00 
  401468:	c7 04 24 0c f0 40 00 	movl   $0x40f00c,(%esp)
  40146f:	c7 05 4c d0 40 00 01 	movl   $0x1,0x40d04c
  401476:	00 00 00 
  401479:	e8 ea 6b 00 00       	call   408068 <__initterm>
  40147e:	e9 6e fd ff ff       	jmp    4011f1 <___tmainCRTStartup+0x91>
  401483:	8b 45 90             	mov    -0x70(%ebp),%eax
  401486:	e9 c1 fe ff ff       	jmp    40134c <___tmainCRTStartup+0x1ec>
  40148b:	89 04 24             	mov    %eax,(%esp)
  40148e:	e8 05 6c 00 00       	call   408098 <_exit>
  401493:	8d b4 26 00 00 00 00 	lea    0x0(%esi,%eiz,1),%esi
  40149a:	8d b6 00 00 00 00    	lea    0x0(%esi),%esi

004014a0 <_WinMainCRTStartup>:
  4014a0:	c7 05 68 d0 40 00 01 	movl   $0x1,0x40d068
  4014a7:	00 00 00 
  4014aa:	e9 b1 fc ff ff       	jmp    401160 <___tmainCRTStartup>
  4014af:	90                   	nop

004014b0 <_mainCRTStartup>:
  4014b0:	c7 05 68 d0 40 00 00 	movl   $0x0,0x40d068
  4014b7:	00 00 00 
  4014ba:	e9 a1 fc ff ff       	jmp    401160 <___tmainCRTStartup>
  4014bf:	90                   	nop

004014c0 <_atexit>:
  4014c0:	83 ec 1c             	sub    $0x1c,%esp
  4014c3:	8b 44 24 20          	mov    0x20(%esp),%eax
  4014c7:	89 04 24             	mov    %eax,(%esp)
  4014ca:	e8 a9 6b 00 00       	call   408078 <__onexit>
  4014cf:	83 f8 01             	cmp    $0x1,%eax
  4014d2:	19 c0                	sbb    %eax,%eax
  4014d4:	83 c4 1c             	add    $0x1c,%esp
  4014d7:	c3                   	ret
  4014d8:	90                   	nop
  4014d9:	90                   	nop
  4014da:	90                   	nop
  4014db:	90                   	nop
  4014dc:	90                   	nop
  4014dd:	90                   	nop
  4014de:	90                   	nop
  4014df:	90                   	nop

004014e0 <___gcc_register_frame>:
  4014e0:	55                   	push   %ebp
  4014e1:	89 e5                	mov    %esp,%ebp
  4014e3:	57                   	push   %edi
  4014e4:	56                   	push   %esi
  4014e5:	53                   	push   %ebx
  4014e6:	83 ec 1c             	sub    $0x1c,%esp
  4014e9:	c7 04 24 00 a0 40 00 	movl   $0x40a000,(%esp)
  4014f0:	ff 15 30 e1 40 00    	call   *0x40e130
  4014f6:	83 ec 04             	sub    $0x4,%esp
  4014f9:	85 c0                	test   %eax,%eax
  4014fb:	74 73                	je     401570 <___gcc_register_frame+0x90>
  4014fd:	89 c3                	mov    %eax,%ebx
  4014ff:	c7 04 24 00 a0 40 00 	movl   $0x40a000,(%esp)
  401506:	ff 15 4c e1 40 00    	call   *0x40e14c
  40150c:	8b 3d 38 e1 40 00    	mov    0x40e138,%edi
  401512:	83 ec 04             	sub    $0x4,%esp
  401515:	a3 28 d0 40 00       	mov    %eax,0x40d028
  40151a:	c7 44 24 04 13 a0 40 	movl   $0x40a013,0x4(%esp)
  401521:	00 
  401522:	89 1c 24             	mov    %ebx,(%esp)
  401525:	ff d7                	call   *%edi
  401527:	83 ec 08             	sub    $0x8,%esp
  40152a:	89 c6                	mov    %eax,%esi
  40152c:	c7 44 24 04 29 a0 40 	movl   $0x40a029,0x4(%esp)
  401533:	00 
  401534:	89 1c 24             	mov    %ebx,(%esp)
  401537:	ff d7                	call   *%edi
  401539:	83 ec 08             	sub    $0x8,%esp
  40153c:	a3 04 90 40 00       	mov    %eax,0x409004
  401541:	85 f6                	test   %esi,%esi
  401543:	74 11                	je     401556 <___gcc_register_frame+0x76>
  401545:	c7 44 24 04 2c d0 40 	movl   $0x40d02c,0x4(%esp)
  40154c:	00 
  40154d:	c7 04 24 04 b1 40 00 	movl   $0x40b104,(%esp)
  401554:	ff d6                	call   *%esi
  401556:	c7 04 24 80 15 40 00 	movl   $0x401580,(%esp)
  40155d:	e8 5e ff ff ff       	call   4014c0 <_atexit>
  401562:	8d 65 f4             	lea    -0xc(%ebp),%esp
  401565:	5b                   	pop    %ebx
  401566:	5e                   	pop    %esi
  401567:	5f                   	pop    %edi
  401568:	5d                   	pop    %ebp
  401569:	c3                   	ret
  40156a:	8d b6 00 00 00 00    	lea    0x0(%esi),%esi
  401570:	b8 00 00 00 00       	mov    $0x0,%eax
  401575:	be 00 00 00 00       	mov    $0x0,%esi
  40157a:	eb c0                	jmp    40153c <___gcc_register_frame+0x5c>
  40157c:	8d 74 26 00          	lea    0x0(%esi,%eiz,1),%esi

00401580 <___gcc_deregister_frame>:
  401580:	55                   	push   %ebp
  401581:	89 e5                	mov    %esp,%ebp
  401583:	83 ec 18             	sub    $0x18,%esp
  401586:	a1 04 90 40 00       	mov    0x409004,%eax
  40158b:	85 c0                	test   %eax,%eax
  40158d:	74 09                	je     401598 <___gcc_deregister_frame+0x18>
  40158f:	c7 04 24 04 b1 40 00 	movl   $0x40b104,(%esp)
  401596:	ff d0                	call   *%eax
  401598:	a1 28 d0 40 00       	mov    0x40d028,%eax
  40159d:	85 c0                	test   %eax,%eax
  40159f:	74 0c                	je     4015ad <___gcc_deregister_frame+0x2d>
  4015a1:	89 04 24             	mov    %eax,(%esp)
  4015a4:	ff 15 28 e1 40 00    	call   *0x40e128
  4015aa:	83 ec 04             	sub    $0x4,%esp
  4015ad:	c9                   	leave
  4015ae:	c3                   	ret
  4015af:	90                   	nop

004015b0 <_printf>:
  4015b0:	55                   	push   %ebp
  4015b1:	89 e5                	mov    %esp,%ebp
  4015b3:	53                   	push   %ebx
  4015b4:	83 ec 24             	sub    $0x24,%esp
  4015b7:	8d 45 0c             	lea    0xc(%ebp),%eax
  4015ba:	89 45 f0             	mov    %eax,-0x10(%ebp)
  4015bd:	8b 5d f0             	mov    -0x10(%ebp),%ebx
  4015c0:	c7 04 24 01 00 00 00 	movl   $0x1,(%esp)
  4015c7:	a1 4c 90 40 00       	mov    0x40904c,%eax
  4015cc:	ff d0                	call   *%eax
  4015ce:	89 5c 24 08          	mov    %ebx,0x8(%esp)
  4015d2:	8b 55 08             	mov    0x8(%ebp),%edx
  4015d5:	89 54 24 04          	mov    %edx,0x4(%esp)
  4015d9:	89 04 24             	mov    %eax,(%esp)
  4015dc:	e8 ef 0f 00 00       	call   4025d0 <___mingw_vfprintf>
  4015e1:	89 45 f4             	mov    %eax,-0xc(%ebp)
  4015e4:	8b 45 f4             	mov    -0xc(%ebp),%eax
  4015e7:	8b 5d fc             	mov    -0x4(%ebp),%ebx
  4015ea:	c9                   	leave
  4015eb:	c3                   	ret

004015ec <_main>:
  4015ec:	55                   	push   %ebp
  4015ed:	89 e5                	mov    %esp,%ebp
  4015ef:	83 e4 f0             	and    $0xfffffff0,%esp
  4015f2:	83 ec 10             	sub    $0x10,%esp
  4015f5:	e8 b6 00 00 00       	call   4016b0 <___main>
  4015fa:	c7 04 24 44 a0 40 00 	movl   $0x40a044,(%esp)
  401601:	e8 aa ff ff ff       	call   4015b0 <_printf>
  401606:	b8 00 00 00 00       	mov    $0x0,%eax
  40160b:	c9                   	leave
  40160c:	c3                   	ret
  40160d:	90                   	nop
  40160e:	90                   	nop
  40160f:	90                   	nop

00401610 <___do_global_dtors>:
  401610:	a1 08 90 40 00       	mov    0x409008,%eax
  401615:	8b 00                	mov    (%eax),%eax
  401617:	85 c0                	test   %eax,%eax
  401619:	74 25                	je     401640 <___do_global_dtors+0x30>
  40161b:	83 ec 0c             	sub    $0xc,%esp
  40161e:	66 90                	xchg   %ax,%ax
  401620:	ff d0                	call   *%eax
  401622:	a1 08 90 40 00       	mov    0x409008,%eax
  401627:	8d 50 04             	lea    0x4(%eax),%edx
  40162a:	8b 40 04             	mov    0x4(%eax),%eax
  40162d:	89 15 08 90 40 00    	mov    %edx,0x409008
  401633:	85 c0                	test   %eax,%eax
  401635:	75 e9                	jne    401620 <___do_global_dtors+0x10>
  401637:	83 c4 0c             	add    $0xc,%esp
  40163a:	c3                   	ret
  40163b:	8d 74 26 00          	lea    0x0(%esi,%eiz,1),%esi
  40163f:	90                   	nop
  401640:	c3                   	ret
  401641:	8d b4 26 00 00 00 00 	lea    0x0(%esi,%eiz,1),%esi
  401648:	8d b4 26 00 00 00 00 	lea    0x0(%esi,%eiz,1),%esi
  40164f:	90                   	nop

00401650 <___do_global_ctors>:
  401650:	53                   	push   %ebx
  401651:	83 ec 18             	sub    $0x18,%esp
  401654:	8b 1d 30 82 40 00    	mov    0x408230,%ebx
  40165a:	83 fb ff             	cmp    $0xffffffff,%ebx
  40165d:	74 29                	je     401688 <___do_global_ctors+0x38>
  40165f:	85 db                	test   %ebx,%ebx
  401661:	74 11                	je     401674 <___do_global_ctors+0x24>
  401663:	8d 74 26 00          	lea    0x0(%esi,%eiz,1),%esi
  401667:	90                   	nop
  401668:	ff 14 9d 30 82 40 00 	call   *0x408230(,%ebx,4)
  40166f:	83 eb 01             	sub    $0x1,%ebx
  401672:	75 f4                	jne    401668 <___do_global_ctors+0x18>
  401674:	c7 04 24 10 16 40 00 	movl   $0x401610,(%esp)
  40167b:	e8 40 fe ff ff       	call   4014c0 <_atexit>
  401680:	83 c4 18             	add    $0x18,%esp
  401683:	5b                   	pop    %ebx
  401684:	c3                   	ret
  401685:	8d 76 00             	lea    0x0(%esi),%esi
  401688:	31 c0                	xor    %eax,%eax
  40168a:	8d b6 00 00 00 00    	lea    0x0(%esi),%esi
  401690:	89 c3                	mov    %eax,%ebx
  401692:	83 c0 01             	add    $0x1,%eax
  401695:	8b 14 85 30 82 40 00 	mov    0x408230(,%eax,4),%edx
  40169c:	85 d2                	test   %edx,%edx
  40169e:	75 f0                	jne    401690 <___do_global_ctors+0x40>
  4016a0:	eb bd                	jmp    40165f <___do_global_ctors+0xf>
  4016a2:	8d b4 26 00 00 00 00 	lea    0x0(%esi,%eiz,1),%esi
  4016a9:	8d b4 26 00 00 00 00 	lea    0x0(%esi,%eiz,1),%esi

004016b0 <___main>:
  4016b0:	a1 44 d0 40 00       	mov    0x40d044,%eax
  4016b5:	85 c0                	test   %eax,%eax
  4016b7:	74 07                	je     4016c0 <___main+0x10>
  4016b9:	c3                   	ret
  4016ba:	8d b6 00 00 00 00    	lea    0x0(%esi),%esi
  4016c0:	c7 05 44 d0 40 00 01 	movl   $0x1,0x40d044
  4016c7:	00 00 00 
  4016ca:	eb 84                	jmp    401650 <___do_global_ctors>
  4016cc:	90                   	nop
  4016cd:	90                   	nop
  4016ce:	90                   	nop
  4016cf:	90                   	nop

004016d0 <__setargv>:
  4016d0:	31 c0                	xor    %eax,%eax
  4016d2:	c3                   	ret
  4016d3:	90                   	nop
  4016d4:	90                   	nop
  4016d5:	90                   	nop
  4016d6:	90                   	nop
  4016d7:	90                   	nop
  4016d8:	90                   	nop
  4016d9:	90                   	nop
  4016da:	90                   	nop
  4016db:	90                   	nop
  4016dc:	90                   	nop
  4016dd:	90                   	nop
  4016de:	90                   	nop
  4016df:	90                   	nop

004016e0 <___dyn_tls_dtor@12>:
  4016e0:	83 ec 1c             	sub    $0x1c,%esp
  4016e3:	8b 44 24 24          	mov    0x24(%esp),%eax
  4016e7:	83 f8 03             	cmp    $0x3,%eax
  4016ea:	74 14                	je     401700 <___dyn_tls_dtor@12+0x20>
  4016ec:	85 c0                	test   %eax,%eax
  4016ee:	74 10                	je     401700 <___dyn_tls_dtor@12+0x20>
  4016f0:	b8 01 00 00 00       	mov    $0x1,%eax
  4016f5:	83 c4 1c             	add    $0x1c,%esp
  4016f8:	c2 0c 00             	ret    $0xc
  4016fb:	8d 74 26 00          	lea    0x0(%esi,%eiz,1),%esi
  4016ff:	90                   	nop
  401700:	89 44 24 04          	mov    %eax,0x4(%esp)
  401704:	8b 54 24 28          	mov    0x28(%esp),%edx
  401708:	8b 44 24 20          	mov    0x20(%esp),%eax
  40170c:	89 54 24 08          	mov    %edx,0x8(%esp)
  401710:	89 04 24             	mov    %eax,(%esp)
  401713:	e8 b8 09 00 00       	call   4020d0 <___mingw_TLScallback>
  401718:	b8 01 00 00 00       	mov    $0x1,%eax
  40171d:	83 c4 1c             	add    $0x1c,%esp
  401720:	c2 0c 00             	ret    $0xc
  401723:	8d b4 26 00 00 00 00 	lea    0x0(%esi,%eiz,1),%esi
  40172a:	8d b6 00 00 00 00    	lea    0x0(%esi),%esi

00401730 <___dyn_tls_init@12>:
  401730:	56                   	push   %esi
  401731:	53                   	push   %ebx
  401732:	83 ec 14             	sub    $0x14,%esp
  401735:	83 3d 18 90 40 00 02 	cmpl   $0x2,0x409018
  40173c:	8b 44 24 24          	mov    0x24(%esp),%eax
  401740:	74 0a                	je     40174c <___dyn_tls_init@12+0x1c>
  401742:	c7 05 18 90 40 00 02 	movl   $0x2,0x409018
  401749:	00 00 00 
  40174c:	83 f8 02             	cmp    $0x2,%eax
  40174f:	74 17                	je     401768 <___dyn_tls_init@12+0x38>
  401751:	83 f8 01             	cmp    $0x1,%eax
  401754:	74 4a                	je     4017a0 <___dyn_tls_init@12+0x70>
  401756:	83 c4 14             	add    $0x14,%esp
  401759:	b8 01 00 00 00       	mov    $0x1,%eax
  40175e:	5b                   	pop    %ebx
  40175f:	5e                   	pop    %esi
  401760:	c2 0c 00             	ret    $0xc
  401763:	8d 74 26 00          	lea    0x0(%esi,%eiz,1),%esi
  401767:	90                   	nop
  401768:	bb 2c f0 40 00       	mov    $0x40f02c,%ebx
  40176d:	be 2c f0 40 00       	mov    $0x40f02c,%esi
  401772:	39 de                	cmp    %ebx,%esi
  401774:	74 e0                	je     401756 <___dyn_tls_init@12+0x26>
  401776:	8d b4 26 00 00 00 00 	lea    0x0(%esi,%eiz,1),%esi
  40177d:	8d 76 00             	lea    0x0(%esi),%esi
  401780:	8b 03                	mov    (%ebx),%eax
  401782:	85 c0                	test   %eax,%eax
  401784:	74 02                	je     401788 <___dyn_tls_init@12+0x58>
  401786:	ff d0                	call   *%eax
  401788:	83 c3 04             	add    $0x4,%ebx
  40178b:	39 de                	cmp    %ebx,%esi
  40178d:	75 f1                	jne    401780 <___dyn_tls_init@12+0x50>
  40178f:	83 c4 14             	add    $0x14,%esp
  401792:	b8 01 00 00 00       	mov    $0x1,%eax
  401797:	5b                   	pop    %ebx
  401798:	5e                   	pop    %esi
  401799:	c2 0c 00             	ret    $0xc
  40179c:	8d 74 26 00          	lea    0x0(%esi,%eiz,1),%esi
  4017a0:	8b 44 24 28          	mov    0x28(%esp),%eax
  4017a4:	c7 44 24 04 01 00 00 	movl   $0x1,0x4(%esp)
  4017ab:	00 
  4017ac:	89 44 24 08          	mov    %eax,0x8(%esp)
  4017b0:	8b 44 24 20          	mov    0x20(%esp),%eax
  4017b4:	89 04 24             	mov    %eax,(%esp)
  4017b7:	e8 14 09 00 00       	call   4020d0 <___mingw_TLScallback>
  4017bc:	83 c4 14             	add    $0x14,%esp
  4017bf:	b8 01 00 00 00       	mov    $0x1,%eax
  4017c4:	5b                   	pop    %ebx
  4017c5:	5e                   	pop    %esi
  4017c6:	c2 0c 00             	ret    $0xc
  4017c9:	8d b4 26 00 00 00 00 	lea    0x0(%esi,%eiz,1),%esi

004017d0 <___tlregdtor>:
  4017d0:	31 c0                	xor    %eax,%eax
  4017d2:	c3                   	ret
  4017d3:	90                   	nop
  4017d4:	90                   	nop
  4017d5:	90                   	nop
  4017d6:	90                   	nop
  4017d7:	90                   	nop
  4017d8:	90                   	nop
  4017d9:	90                   	nop
  4017da:	90                   	nop
  4017db:	90                   	nop
  4017dc:	90                   	nop
  4017dd:	90                   	nop
  4017de:	90                   	nop
  4017df:	90                   	nop

004017e0 <__matherr>:
  4017e0:	56                   	push   %esi
  4017e1:	53                   	push   %ebx
  4017e2:	bb 68 a0 40 00       	mov    $0x40a068,%ebx
  4017e7:	83 ec 54             	sub    $0x54,%esp
  4017ea:	8b 44 24 60          	mov    0x60(%esp),%eax
  4017ee:	8b 08                	mov    (%eax),%ecx
  4017f0:	8d 51 ff             	lea    -0x1(%ecx),%edx
  4017f3:	83 fa 05             	cmp    $0x5,%edx
  4017f6:	77 07                	ja     4017ff <__matherr+0x1f>
  4017f8:	8b 1c 95 84 a1 40 00 	mov    0x40a184(,%edx,4),%ebx
  4017ff:	dd 40 18             	fldl   0x18(%eax)
  401802:	8b 70 04             	mov    0x4(%eax),%esi
  401805:	dd 5c 24 48          	fstpl  0x48(%esp)
  401809:	dd 40 10             	fldl   0x10(%eax)
  40180c:	dd 5c 24 40          	fstpl  0x40(%esp)
  401810:	dd 40 08             	fldl   0x8(%eax)
  401813:	c7 04 24 02 00 00 00 	movl   $0x2,(%esp)
  40181a:	dd 5c 24 38          	fstpl  0x38(%esp)
  40181e:	e8 3d 62 00 00       	call   407a60 <___acrt_iob_func>
  401823:	dd 44 24 48          	fldl   0x48(%esp)
  401827:	89 74 24 0c          	mov    %esi,0xc(%esp)
  40182b:	89 5c 24 08          	mov    %ebx,0x8(%esp)
  40182f:	c7 44 24 04 78 a0 40 	movl   $0x40a078,0x4(%esp)
  401836:	00 
  401837:	dd 5c 24 20          	fstpl  0x20(%esp)
  40183b:	dd 44 24 40          	fldl   0x40(%esp)
  40183f:	89 04 24             	mov    %eax,(%esp)
  401842:	dd 5c 24 18          	fstpl  0x18(%esp)
  401846:	dd 44 24 38          	fldl   0x38(%esp)
  40184a:	dd 5c 24 10          	fstpl  0x10(%esp)
  40184e:	e8 4d 68 00 00       	call   4080a0 <_fprintf>
  401853:	83 c4 54             	add    $0x54,%esp
  401856:	31 c0                	xor    %eax,%eax
  401858:	5b                   	pop    %ebx
  401859:	5e                   	pop    %esi
  40185a:	c3                   	ret
  40185b:	90                   	nop
  40185c:	90                   	nop
  40185d:	90                   	nop
  40185e:	90                   	nop
  40185f:	90                   	nop

00401860 <__fpreset>:
  401860:	db e3                	fninit
  401862:	c3                   	ret
  401863:	90                   	nop
  401864:	90                   	nop
  401865:	90                   	nop
  401866:	90                   	nop
  401867:	90                   	nop
  401868:	90                   	nop
  401869:	90                   	nop
  40186a:	90                   	nop
  40186b:	90                   	nop
  40186c:	90                   	nop
  40186d:	90                   	nop
  40186e:	90                   	nop
  40186f:	90                   	nop

00401870 <___report_error>:
  401870:	53                   	push   %ebx
  401871:	83 ec 18             	sub    $0x18,%esp
  401874:	c7 04 24 02 00 00 00 	movl   $0x2,(%esp)
  40187b:	8d 5c 24 24          	lea    0x24(%esp),%ebx
  40187f:	e8 dc 61 00 00       	call   407a60 <___acrt_iob_func>
  401884:	c7 44 24 08 1b 00 00 	movl   $0x1b,0x8(%esp)
  40188b:	00 
  40188c:	89 44 24 0c          	mov    %eax,0xc(%esp)
  401890:	c7 44 24 04 01 00 00 	movl   $0x1,0x4(%esp)
  401897:	00 
  401898:	c7 04 24 9c a1 40 00 	movl   $0x40a19c,(%esp)
  40189f:	e8 14 68 00 00       	call   4080b8 <_fwrite>
  4018a4:	c7 04 24 02 00 00 00 	movl   $0x2,(%esp)
  4018ab:	e8 b0 61 00 00       	call   407a60 <___acrt_iob_func>
  4018b0:	8b 54 24 20          	mov    0x20(%esp),%edx
  4018b4:	89 5c 24 08          	mov    %ebx,0x8(%esp)
  4018b8:	89 04 24             	mov    %eax,(%esp)
  4018bb:	89 54 24 04          	mov    %edx,0x4(%esp)
  4018bf:	e8 3c 68 00 00       	call   408100 <_vfprintf>
  4018c4:	e8 bf 67 00 00       	call   408088 <_abort>
  4018c9:	8d b4 26 00 00 00 00 	lea    0x0(%esi,%eiz,1),%esi

004018d0 <_mark_section_writable>:
  4018d0:	57                   	push   %edi
  4018d1:	56                   	push   %esi
  4018d2:	53                   	push   %ebx
  4018d3:	89 c3                	mov    %eax,%ebx
  4018d5:	83 ec 30             	sub    $0x30,%esp
  4018d8:	8b 35 70 d0 40 00    	mov    0x40d070,%esi
  4018de:	85 f6                	test   %esi,%esi
  4018e0:	0f 8e 0a 01 00 00    	jle    4019f0 <_mark_section_writable+0x120>
  4018e6:	a1 74 d0 40 00       	mov    0x40d074,%eax
  4018eb:	31 c9                	xor    %ecx,%ecx
  4018ed:	83 c0 0c             	add    $0xc,%eax
  4018f0:	8b 10                	mov    (%eax),%edx
  4018f2:	39 da                	cmp    %ebx,%edx
  4018f4:	77 0e                	ja     401904 <_mark_section_writable+0x34>
  4018f6:	8b 78 04             	mov    0x4(%eax),%edi
  4018f9:	03 57 08             	add    0x8(%edi),%edx
  4018fc:	39 d3                	cmp    %edx,%ebx
  4018fe:	0f 82 83 00 00 00    	jb     401987 <_mark_section_writable+0xb7>
  401904:	83 c1 01             	add    $0x1,%ecx
  401907:	83 c0 14             	add    $0x14,%eax
  40190a:	39 f1                	cmp    %esi,%ecx
  40190c:	75 e2                	jne    4018f0 <_mark_section_writable+0x20>
  40190e:	89 1c 24             	mov    %ebx,(%esp)
  401911:	e8 ba 09 00 00       	call   4022d0 <___mingw_GetSectionForAddress>
  401916:	89 c7                	mov    %eax,%edi
  401918:	85 c0                	test   %eax,%eax
  40191a:	0f 84 f7 00 00 00    	je     401a17 <_mark_section_writable+0x147>
  401920:	a1 74 d0 40 00       	mov    0x40d074,%eax
  401925:	8d 1c b6             	lea    (%esi,%esi,4),%ebx
  401928:	c1 e3 02             	shl    $0x2,%ebx
  40192b:	01 d8                	add    %ebx,%eax
  40192d:	89 78 10             	mov    %edi,0x10(%eax)
  401930:	c7 00 00 00 00 00    	movl   $0x0,(%eax)
  401936:	e8 d5 0a 00 00       	call   402410 <__GetPEImageBase>
  40193b:	8b 15 74 d0 40 00    	mov    0x40d074,%edx
  401941:	03 47 0c             	add    0xc(%edi),%eax
  401944:	89 44 1a 0c          	mov    %eax,0xc(%edx,%ebx,1)
  401948:	8d 54 24 14          	lea    0x14(%esp),%edx
  40194c:	c7 44 24 08 1c 00 00 	movl   $0x1c,0x8(%esp)
  401953:	00 
  401954:	89 54 24 04          	mov    %edx,0x4(%esp)
  401958:	89 04 24             	mov    %eax,(%esp)
  40195b:	ff 15 64 e1 40 00    	call   *0x40e164
  401961:	83 ec 0c             	sub    $0xc,%esp
  401964:	85 c0                	test   %eax,%eax
  401966:	0f 84 8b 00 00 00    	je     4019f7 <_mark_section_writable+0x127>
  40196c:	8b 44 24 28          	mov    0x28(%esp),%eax
  401970:	8d 50 c0             	lea    -0x40(%eax),%edx
  401973:	83 e2 bf             	and    $0xffffffbf,%edx
  401976:	74 08                	je     401980 <_mark_section_writable+0xb0>
  401978:	8d 50 fc             	lea    -0x4(%eax),%edx
  40197b:	83 e2 fb             	and    $0xfffffffb,%edx
  40197e:	75 10                	jne    401990 <_mark_section_writable+0xc0>
  401980:	83 05 70 d0 40 00 01 	addl   $0x1,0x40d070
  401987:	83 c4 30             	add    $0x30,%esp
  40198a:	5b                   	pop    %ebx
  40198b:	5e                   	pop    %esi
  40198c:	5f                   	pop    %edi
  40198d:	c3                   	ret
  40198e:	66 90                	xchg   %ax,%ax
  401990:	83 f8 02             	cmp    $0x2,%eax
  401993:	ba 40 00 00 00       	mov    $0x40,%edx
  401998:	b8 04 00 00 00       	mov    $0x4,%eax
  40199d:	8b 4c 24 20          	mov    0x20(%esp),%ecx
  4019a1:	0f 45 c2             	cmovne %edx,%eax
  4019a4:	8b 54 24 14          	mov    0x14(%esp),%edx
  4019a8:	03 1d 74 d0 40 00    	add    0x40d074,%ebx
  4019ae:	89 4b 08             	mov    %ecx,0x8(%ebx)
  4019b1:	89 53 04             	mov    %edx,0x4(%ebx)
  4019b4:	89 5c 24 0c          	mov    %ebx,0xc(%esp)
  4019b8:	89 44 24 08          	mov    %eax,0x8(%esp)
  4019bc:	89 4c 24 04          	mov    %ecx,0x4(%esp)
  4019c0:	89 14 24             	mov    %edx,(%esp)
  4019c3:	ff 15 60 e1 40 00    	call   *0x40e160
  4019c9:	83 ec 10             	sub    $0x10,%esp
  4019cc:	85 c0                	test   %eax,%eax
  4019ce:	75 b0                	jne    401980 <_mark_section_writable+0xb0>
  4019d0:	ff 15 2c e1 40 00    	call   *0x40e12c
  4019d6:	c7 04 24 0c a2 40 00 	movl   $0x40a20c,(%esp)
  4019dd:	89 44 24 04          	mov    %eax,0x4(%esp)
  4019e1:	e8 8a fe ff ff       	call   401870 <___report_error>
  4019e6:	8d b4 26 00 00 00 00 	lea    0x0(%esi,%eiz,1),%esi
  4019ed:	8d 76 00             	lea    0x0(%esi),%esi
  4019f0:	31 f6                	xor    %esi,%esi
  4019f2:	e9 17 ff ff ff       	jmp    40190e <_mark_section_writable+0x3e>
  4019f7:	a1 74 d0 40 00       	mov    0x40d074,%eax
  4019fc:	8b 44 18 0c          	mov    0xc(%eax,%ebx,1),%eax
  401a00:	89 44 24 08          	mov    %eax,0x8(%esp)
  401a04:	8b 47 08             	mov    0x8(%edi),%eax
  401a07:	c7 04 24 d8 a1 40 00 	movl   $0x40a1d8,(%esp)
  401a0e:	89 44 24 04          	mov    %eax,0x4(%esp)
  401a12:	e8 59 fe ff ff       	call   401870 <___report_error>
  401a17:	89 5c 24 04          	mov    %ebx,0x4(%esp)
  401a1b:	c7 04 24 b8 a1 40 00 	movl   $0x40a1b8,(%esp)
  401a22:	e8 49 fe ff ff       	call   401870 <___report_error>
  401a27:	8d b4 26 00 00 00 00 	lea    0x0(%esi,%eiz,1),%esi
  401a2e:	66 90                	xchg   %ax,%ax

00401a30 <__pei386_runtime_relocator>:
  401a30:	55                   	push   %ebp
  401a31:	89 e5                	mov    %esp,%ebp
  401a33:	57                   	push   %edi
  401a34:	56                   	push   %esi
  401a35:	53                   	push   %ebx
  401a36:	83 ec 5c             	sub    $0x5c,%esp
  401a39:	8b 3d 6c d0 40 00    	mov    0x40d06c,%edi
  401a3f:	85 ff                	test   %edi,%edi
  401a41:	74 0d                	je     401a50 <__pei386_runtime_relocator+0x20>
  401a43:	8d 65 f4             	lea    -0xc(%ebp),%esp
  401a46:	5b                   	pop    %ebx
  401a47:	5e                   	pop    %esi
  401a48:	5f                   	pop    %edi
  401a49:	5d                   	pop    %ebp
  401a4a:	c3                   	ret
  401a4b:	8d 74 26 00          	lea    0x0(%esi,%eiz,1),%esi
  401a4f:	90                   	nop
  401a50:	c7 05 6c d0 40 00 01 	movl   $0x1,0x40d06c
  401a57:	00 00 00 
  401a5a:	e8 f1 08 00 00       	call   402350 <___mingw_GetSectionCount>
  401a5f:	8d 04 80             	lea    (%eax,%eax,4),%eax
  401a62:	8d 04 85 1b 00 00 00 	lea    0x1b(,%eax,4),%eax
  401a69:	c1 e8 04             	shr    $0x4,%eax
  401a6c:	c1 e0 04             	shl    $0x4,%eax
  401a6f:	e8 2c 0b 00 00       	call   4025a0 <___chkstk_ms>
  401a74:	c7 05 70 d0 40 00 00 	movl   $0x0,0x40d070
  401a7b:	00 00 00 
  401a7e:	29 c4                	sub    %eax,%esp
  401a80:	8d 44 24 23          	lea    0x23(%esp),%eax
  401a84:	83 e0 f0             	and    $0xfffffff0,%eax
  401a87:	a3 74 d0 40 00       	mov    %eax,0x40d074
  401a8c:	b8 98 a9 40 00       	mov    $0x40a998,%eax
  401a91:	2d 98 a9 40 00       	sub    $0x40a998,%eax
  401a96:	83 f8 07             	cmp    $0x7,%eax
  401a99:	7e a8                	jle    401a43 <__pei386_runtime_relocator+0x13>
  401a9b:	8b 15 98 a9 40 00    	mov    0x40a998,%edx
  401aa1:	83 f8 0b             	cmp    $0xb,%eax
  401aa4:	0f 8f c6 00 00 00    	jg     401b70 <__pei386_runtime_relocator+0x140>
  401aaa:	bb 98 a9 40 00       	mov    $0x40a998,%ebx
  401aaf:	8b 03                	mov    (%ebx),%eax
  401ab1:	85 c0                	test   %eax,%eax
  401ab3:	0f 85 cc 01 00 00    	jne    401c85 <__pei386_runtime_relocator+0x255>
  401ab9:	8b 43 04             	mov    0x4(%ebx),%eax
  401abc:	85 c0                	test   %eax,%eax
  401abe:	0f 85 c1 01 00 00    	jne    401c85 <__pei386_runtime_relocator+0x255>
  401ac4:	8b 43 08             	mov    0x8(%ebx),%eax
  401ac7:	83 f8 01             	cmp    $0x1,%eax
  401aca:	0f 85 4f 02 00 00    	jne    401d1f <__pei386_runtime_relocator+0x2ef>
  401ad0:	83 c3 0c             	add    $0xc,%ebx
  401ad3:	81 fb 98 a9 40 00    	cmp    $0x40a998,%ebx
  401ad9:	0f 83 64 ff ff ff    	jae    401a43 <__pei386_runtime_relocator+0x13>
  401adf:	89 7d c0             	mov    %edi,-0x40(%ebp)
  401ae2:	eb 3e                	jmp    401b22 <__pei386_runtime_relocator+0xf2>
  401ae4:	8d 74 26 00          	lea    0x0(%esi,%eiz,1),%esi
  401ae8:	8b 45 d4             	mov    -0x2c(%ebp),%eax
  401aeb:	29 f0                	sub    %esi,%eax
  401aed:	03 87 00 00 40 00    	add    0x400000(%edi),%eax
  401af3:	81 e2 e0 00 00 00    	and    $0xe0,%edx
  401af9:	89 c6                	mov    %eax,%esi
  401afb:	75 08                	jne    401b05 <__pei386_runtime_relocator+0xd5>
  401afd:	85 c0                	test   %eax,%eax
  401aff:	0f 89 53 01 00 00    	jns    401c58 <__pei386_runtime_relocator+0x228>
  401b05:	8b 45 d0             	mov    -0x30(%ebp),%eax
  401b08:	e8 c3 fd ff ff       	call   4018d0 <_mark_section_writable>
  401b0d:	89 b7 00 00 40 00    	mov    %esi,0x400000(%edi)
  401b13:	83 c3 0c             	add    $0xc,%ebx
  401b16:	81 fb 98 a9 40 00    	cmp    $0x40a998,%ebx
  401b1c:	0f 83 db 00 00 00    	jae    401bfd <__pei386_runtime_relocator+0x1cd>
  401b22:	8b 7b 04             	mov    0x4(%ebx),%edi
  401b25:	8b 53 08             	mov    0x8(%ebx),%edx
  401b28:	8d 87 00 00 40 00    	lea    0x400000(%edi),%eax
  401b2e:	89 45 d0             	mov    %eax,-0x30(%ebp)
  401b31:	8b 03                	mov    (%ebx),%eax
  401b33:	8d b0 00 00 40 00    	lea    0x400000(%eax),%esi
  401b39:	8b 80 00 00 40 00    	mov    0x400000(%eax),%eax
  401b3f:	89 45 d4             	mov    %eax,-0x2c(%ebp)
  401b42:	0f b6 c2             	movzbl %dl,%eax
  401b45:	89 45 cc             	mov    %eax,-0x34(%ebp)
  401b48:	80 fa 10             	cmp    $0x10,%dl
  401b4b:	74 53                	je     401ba0 <__pei386_runtime_relocator+0x170>
  401b4d:	83 f8 20             	cmp    $0x20,%eax
  401b50:	74 96                	je     401ae8 <__pei386_runtime_relocator+0xb8>
  401b52:	83 f8 08             	cmp    $0x8,%eax
  401b55:	0f 84 ad 00 00 00    	je     401c08 <__pei386_runtime_relocator+0x1d8>
  401b5b:	8b 4d cc             	mov    -0x34(%ebp),%ecx
  401b5e:	c7 04 24 68 a2 40 00 	movl   $0x40a268,(%esp)
  401b65:	89 4c 24 04          	mov    %ecx,0x4(%esp)
  401b69:	e8 02 fd ff ff       	call   401870 <___report_error>
  401b6e:	66 90                	xchg   %ax,%ax
  401b70:	85 d2                	test   %edx,%edx
  401b72:	0f 85 08 01 00 00    	jne    401c80 <__pei386_runtime_relocator+0x250>
  401b78:	a1 9c a9 40 00       	mov    0x40a99c,%eax
  401b7d:	bb a4 a9 40 00       	mov    $0x40a9a4,%ebx
  401b82:	89 c1                	mov    %eax,%ecx
  401b84:	0b 0d a0 a9 40 00    	or     0x40a9a0,%ecx
  401b8a:	0f 84 1f ff ff ff    	je     401aaf <__pei386_runtime_relocator+0x7f>
  401b90:	bb 98 a9 40 00       	mov    $0x40a998,%ebx
  401b95:	e9 22 ff ff ff       	jmp    401abc <__pei386_runtime_relocator+0x8c>
  401b9a:	8d b6 00 00 00 00    	lea    0x0(%esi),%esi
  401ba0:	0f b7 87 00 00 40 00 	movzwl 0x400000(%edi),%eax
  401ba7:	89 c1                	mov    %eax,%ecx
  401ba9:	66 89 45 ca          	mov    %ax,-0x36(%ebp)
  401bad:	81 c9 00 00 ff ff    	or     $0xffff0000,%ecx
  401bb3:	66 83 7d ca 00       	cmpw   $0x0,-0x36(%ebp)
  401bb8:	0f 48 c1             	cmovs  %ecx,%eax
  401bbb:	8b 4d d4             	mov    -0x2c(%ebp),%ecx
  401bbe:	29 f0                	sub    %esi,%eax
  401bc0:	81 e2 e0 00 00 00    	and    $0xe0,%edx
  401bc6:	8d 34 08             	lea    (%eax,%ecx,1),%esi
  401bc9:	75 14                	jne    401bdf <__pei386_runtime_relocator+0x1af>
  401bcb:	81 fe 00 80 ff ff    	cmp    $0xffff8000,%esi
  401bd1:	0f 8c 81 00 00 00    	jl     401c58 <__pei386_runtime_relocator+0x228>
  401bd7:	81 fe ff ff 00 00    	cmp    $0xffff,%esi
  401bdd:	7f 79                	jg     401c58 <__pei386_runtime_relocator+0x228>
  401bdf:	8b 45 d0             	mov    -0x30(%ebp),%eax
  401be2:	83 c3 0c             	add    $0xc,%ebx
  401be5:	e8 e6 fc ff ff       	call   4018d0 <_mark_section_writable>
  401bea:	66 89 b7 00 00 40 00 	mov    %si,0x400000(%edi)
  401bf1:	81 fb 98 a9 40 00    	cmp    $0x40a998,%ebx
  401bf7:	0f 82 25 ff ff ff    	jb     401b22 <__pei386_runtime_relocator+0xf2>
  401bfd:	8b 7d c0             	mov    -0x40(%ebp),%edi
  401c00:	e9 bd 00 00 00       	jmp    401cc2 <__pei386_runtime_relocator+0x292>
  401c05:	8d 76 00             	lea    0x0(%esi),%esi
  401c08:	0f b6 87 00 00 40 00 	movzbl 0x400000(%edi),%eax
  401c0f:	89 c1                	mov    %eax,%ecx
  401c11:	88 45 ca             	mov    %al,-0x36(%ebp)
  401c14:	81 c9 00 ff ff ff    	or     $0xffffff00,%ecx
  401c1a:	80 7d ca 00          	cmpb   $0x0,-0x36(%ebp)
  401c1e:	0f 48 c1             	cmovs  %ecx,%eax
  401c21:	89 4d c4             	mov    %ecx,-0x3c(%ebp)
  401c24:	29 f0                	sub    %esi,%eax
  401c26:	8b 75 d4             	mov    -0x2c(%ebp),%esi
  401c29:	01 c6                	add    %eax,%esi
  401c2b:	81 e2 e0 00 00 00    	and    $0xe0,%edx
  401c31:	75 0d                	jne    401c40 <__pei386_runtime_relocator+0x210>
  401c33:	83 fe 80             	cmp    $0xffffff80,%esi
  401c36:	7c 20                	jl     401c58 <__pei386_runtime_relocator+0x228>
  401c38:	81 fe ff 00 00 00    	cmp    $0xff,%esi
  401c3e:	7f 18                	jg     401c58 <__pei386_runtime_relocator+0x228>
  401c40:	8b 45 d0             	mov    -0x30(%ebp),%eax
  401c43:	e8 88 fc ff ff       	call   4018d0 <_mark_section_writable>
  401c48:	89 f0                	mov    %esi,%eax
  401c4a:	88 87 00 00 40 00    	mov    %al,0x400000(%edi)
  401c50:	e9 be fe ff ff       	jmp    401b13 <__pei386_runtime_relocator+0xe3>
  401c55:	8d 76 00             	lea    0x0(%esi),%esi
  401c58:	8b 45 d4             	mov    -0x2c(%ebp),%eax
  401c5b:	8b 4d cc             	mov    -0x34(%ebp),%ecx
  401c5e:	89 74 24 10          	mov    %esi,0x10(%esp)
  401c62:	c7 04 24 94 a2 40 00 	movl   $0x40a294,(%esp)
  401c69:	89 44 24 0c          	mov    %eax,0xc(%esp)
  401c6d:	8b 45 d0             	mov    -0x30(%ebp),%eax
  401c70:	89 4c 24 04          	mov    %ecx,0x4(%esp)
  401c74:	89 44 24 08          	mov    %eax,0x8(%esp)
  401c78:	e8 f3 fb ff ff       	call   401870 <___report_error>
  401c7d:	8d 76 00             	lea    0x0(%esi),%esi
  401c80:	bb 98 a9 40 00       	mov    $0x40a998,%ebx
  401c85:	81 fb 98 a9 40 00    	cmp    $0x40a998,%ebx
  401c8b:	0f 83 b2 fd ff ff    	jae    401a43 <__pei386_runtime_relocator+0x13>
  401c91:	89 7d d4             	mov    %edi,-0x2c(%ebp)
  401c94:	8d 74 26 00          	lea    0x0(%esi,%eiz,1),%esi
  401c98:	8b 73 04             	mov    0x4(%ebx),%esi
  401c9b:	8b 3b                	mov    (%ebx),%edi
  401c9d:	83 c3 08             	add    $0x8,%ebx
  401ca0:	03 be 00 00 40 00    	add    0x400000(%esi),%edi
  401ca6:	8d 86 00 00 40 00    	lea    0x400000(%esi),%eax
  401cac:	e8 1f fc ff ff       	call   4018d0 <_mark_section_writable>
  401cb1:	89 be 00 00 40 00    	mov    %edi,0x400000(%esi)
  401cb7:	81 fb 98 a9 40 00    	cmp    $0x40a998,%ebx
  401cbd:	72 d9                	jb     401c98 <__pei386_runtime_relocator+0x268>
  401cbf:	8b 7d d4             	mov    -0x2c(%ebp),%edi
  401cc2:	8b 15 70 d0 40 00    	mov    0x40d070,%edx
  401cc8:	85 d2                	test   %edx,%edx
  401cca:	0f 8e 73 fd ff ff    	jle    401a43 <__pei386_runtime_relocator+0x13>
  401cd0:	8b 1d 60 e1 40 00    	mov    0x40e160,%ebx
  401cd6:	8d 75 e4             	lea    -0x1c(%ebp),%esi
  401cd9:	8d b4 26 00 00 00 00 	lea    0x0(%esi,%eiz,1),%esi
  401ce0:	8b 15 74 d0 40 00    	mov    0x40d074,%edx
  401ce6:	8d 04 bf             	lea    (%edi,%edi,4),%eax
  401ce9:	8d 04 82             	lea    (%edx,%eax,4),%eax
  401cec:	8b 10                	mov    (%eax),%edx
  401cee:	85 d2                	test   %edx,%edx
  401cf0:	74 1a                	je     401d0c <__pei386_runtime_relocator+0x2dc>
  401cf2:	89 74 24 0c          	mov    %esi,0xc(%esp)
  401cf6:	89 54 24 08          	mov    %edx,0x8(%esp)
  401cfa:	8b 50 08             	mov    0x8(%eax),%edx
  401cfd:	89 54 24 04          	mov    %edx,0x4(%esp)
  401d01:	8b 40 04             	mov    0x4(%eax),%eax
  401d04:	89 04 24             	mov    %eax,(%esp)
  401d07:	ff d3                	call   *%ebx
  401d09:	83 ec 10             	sub    $0x10,%esp
  401d0c:	83 c7 01             	add    $0x1,%edi
  401d0f:	3b 3d 70 d0 40 00    	cmp    0x40d070,%edi
  401d15:	7c c9                	jl     401ce0 <__pei386_runtime_relocator+0x2b0>
  401d17:	8d 65 f4             	lea    -0xc(%ebp),%esp
  401d1a:	5b                   	pop    %ebx
  401d1b:	5e                   	pop    %esi
  401d1c:	5f                   	pop    %edi
  401d1d:	5d                   	pop    %ebp
  401d1e:	c3                   	ret
  401d1f:	89 44 24 04          	mov    %eax,0x4(%esp)
  401d23:	c7 04 24 34 a2 40 00 	movl   $0x40a234,(%esp)
  401d2a:	e8 41 fb ff ff       	call   401870 <___report_error>
  401d2f:	90                   	nop

00401d30 <___mingw_raise_matherr>:
  401d30:	83 ec 3c             	sub    $0x3c,%esp
  401d33:	a1 78 d0 40 00       	mov    0x40d078,%eax
  401d38:	dd 44 24 48          	fldl   0x48(%esp)
  401d3c:	dd 44 24 50          	fldl   0x50(%esp)
  401d40:	dd 44 24 58          	fldl   0x58(%esp)
  401d44:	85 c0                	test   %eax,%eax
  401d46:	74 30                	je     401d78 <___mingw_raise_matherr+0x48>
  401d48:	d9 ca                	fxch   %st(2)
  401d4a:	8b 54 24 40          	mov    0x40(%esp),%edx
  401d4e:	dd 5c 24 18          	fstpl  0x18(%esp)
  401d52:	dd 5c 24 20          	fstpl  0x20(%esp)
  401d56:	89 54 24 10          	mov    %edx,0x10(%esp)
  401d5a:	8b 54 24 44          	mov    0x44(%esp),%edx
  401d5e:	dd 5c 24 28          	fstpl  0x28(%esp)
  401d62:	89 54 24 14          	mov    %edx,0x14(%esp)
  401d66:	8d 54 24 10          	lea    0x10(%esp),%edx
  401d6a:	89 14 24             	mov    %edx,(%esp)
  401d6d:	ff d0                	call   *%eax
  401d6f:	eb 0d                	jmp    401d7e <___mingw_raise_matherr+0x4e>
  401d71:	8d b4 26 00 00 00 00 	lea    0x0(%esi,%eiz,1),%esi
  401d78:	dd d8                	fstp   %st(0)
  401d7a:	dd d8                	fstp   %st(0)
  401d7c:	dd d8                	fstp   %st(0)
  401d7e:	83 c4 3c             	add    $0x3c,%esp
  401d81:	c3                   	ret
  401d82:	8d b4 26 00 00 00 00 	lea    0x0(%esi,%eiz,1),%esi
  401d89:	8d b4 26 00 00 00 00 	lea    0x0(%esi,%eiz,1),%esi

00401d90 <___mingw_setusermatherr>:
  401d90:	8b 44 24 04          	mov    0x4(%esp),%eax
  401d94:	a3 78 d0 40 00       	mov    %eax,0x40d078
  401d99:	e9 aa 62 00 00       	jmp    408048 <___setusermatherr>
  401d9e:	90                   	nop
  401d9f:	90                   	nop

00401da0 <__gnu_exception_handler@4>:
  401da0:	53                   	push   %ebx
  401da1:	83 ec 18             	sub    $0x18,%esp
  401da4:	8b 5c 24 20          	mov    0x20(%esp),%ebx
  401da8:	8b 03                	mov    (%ebx),%eax
  401daa:	8b 00                	mov    (%eax),%eax
  401dac:	3d 93 00 00 c0       	cmp    $0xc0000093,%eax
  401db1:	74 1d                	je     401dd0 <__gnu_exception_handler@4+0x30>
  401db3:	77 5b                	ja     401e10 <__gnu_exception_handler@4+0x70>
  401db5:	3d 1d 00 00 c0       	cmp    $0xc000001d,%eax
  401dba:	0f 84 db 00 00 00    	je     401e9b <__gnu_exception_handler@4+0xfb>
  401dc0:	0f 86 8a 00 00 00    	jbe    401e50 <__gnu_exception_handler@4+0xb0>
  401dc6:	05 73 ff ff 3f       	add    $0x3fffff73,%eax
  401dcb:	83 f8 04             	cmp    $0x4,%eax
  401dce:	77 25                	ja     401df5 <__gnu_exception_handler@4+0x55>
  401dd0:	c7 44 24 04 00 00 00 	movl   $0x0,0x4(%esp)
  401dd7:	00 
  401dd8:	c7 04 24 08 00 00 00 	movl   $0x8,(%esp)
  401ddf:	e8 fc 62 00 00       	call   4080e0 <_signal>
  401de4:	83 f8 01             	cmp    $0x1,%eax
  401de7:	0f 84 f3 00 00 00    	je     401ee0 <__gnu_exception_handler@4+0x140>
  401ded:	85 c0                	test   %eax,%eax
  401def:	0f 85 0b 01 00 00    	jne    401f00 <__gnu_exception_handler@4+0x160>
  401df5:	a1 80 d0 40 00       	mov    0x40d080,%eax
  401dfa:	85 c0                	test   %eax,%eax
  401dfc:	0f 84 ce 00 00 00    	je     401ed0 <__gnu_exception_handler@4+0x130>
  401e02:	89 5c 24 20          	mov    %ebx,0x20(%esp)
  401e06:	83 c4 18             	add    $0x18,%esp
  401e09:	5b                   	pop    %ebx
  401e0a:	ff e0                	jmp    *%eax
  401e0c:	8d 74 26 00          	lea    0x0(%esi,%eiz,1),%esi
  401e10:	3d 94 00 00 c0       	cmp    $0xc0000094,%eax
  401e15:	75 79                	jne    401e90 <__gnu_exception_handler@4+0xf0>
  401e17:	c7 44 24 04 00 00 00 	movl   $0x0,0x4(%esp)
  401e1e:	00 
  401e1f:	c7 04 24 08 00 00 00 	movl   $0x8,(%esp)
  401e26:	e8 b5 62 00 00       	call   4080e0 <_signal>
  401e2b:	83 f8 01             	cmp    $0x1,%eax
  401e2e:	75 bd                	jne    401ded <__gnu_exception_handler@4+0x4d>
  401e30:	c7 44 24 04 01 00 00 	movl   $0x1,0x4(%esp)
  401e37:	00 
  401e38:	c7 04 24 08 00 00 00 	movl   $0x8,(%esp)
  401e3f:	e8 9c 62 00 00       	call   4080e0 <_signal>
  401e44:	b8 ff ff ff ff       	mov    $0xffffffff,%eax
  401e49:	e9 84 00 00 00       	jmp    401ed2 <__gnu_exception_handler@4+0x132>
  401e4e:	66 90                	xchg   %ax,%ax
  401e50:	3d 05 00 00 c0       	cmp    $0xc0000005,%eax
  401e55:	75 9e                	jne    401df5 <__gnu_exception_handler@4+0x55>
  401e57:	c7 44 24 04 00 00 00 	movl   $0x0,0x4(%esp)
  401e5e:	00 
  401e5f:	c7 04 24 0b 00 00 00 	movl   $0xb,(%esp)
  401e66:	e8 75 62 00 00       	call   4080e0 <_signal>
  401e6b:	83 f8 01             	cmp    $0x1,%eax
  401e6e:	0f 84 9c 00 00 00    	je     401f10 <__gnu_exception_handler@4+0x170>
  401e74:	85 c0                	test   %eax,%eax
  401e76:	0f 84 79 ff ff ff    	je     401df5 <__gnu_exception_handler@4+0x55>
  401e7c:	c7 04 24 0b 00 00 00 	movl   $0xb,(%esp)
  401e83:	ff d0                	call   *%eax
  401e85:	b8 ff ff ff ff       	mov    $0xffffffff,%eax
  401e8a:	eb 46                	jmp    401ed2 <__gnu_exception_handler@4+0x132>
  401e8c:	8d 74 26 00          	lea    0x0(%esi,%eiz,1),%esi
  401e90:	3d 96 00 00 c0       	cmp    $0xc0000096,%eax
  401e95:	0f 85 5a ff ff ff    	jne    401df5 <__gnu_exception_handler@4+0x55>
  401e9b:	c7 44 24 04 00 00 00 	movl   $0x0,0x4(%esp)
  401ea2:	00 
  401ea3:	c7 04 24 04 00 00 00 	movl   $0x4,(%esp)
  401eaa:	e8 31 62 00 00       	call   4080e0 <_signal>
  401eaf:	83 f8 01             	cmp    $0x1,%eax
  401eb2:	74 75                	je     401f29 <__gnu_exception_handler@4+0x189>
  401eb4:	85 c0                	test   %eax,%eax
  401eb6:	0f 84 39 ff ff ff    	je     401df5 <__gnu_exception_handler@4+0x55>
  401ebc:	c7 04 24 04 00 00 00 	movl   $0x4,(%esp)
  401ec3:	ff d0                	call   *%eax
  401ec5:	b8 ff ff ff ff       	mov    $0xffffffff,%eax
  401eca:	eb 06                	jmp    401ed2 <__gnu_exception_handler@4+0x132>
  401ecc:	8d 74 26 00          	lea    0x0(%esi,%eiz,1),%esi
  401ed0:	31 c0                	xor    %eax,%eax
  401ed2:	83 c4 18             	add    $0x18,%esp
  401ed5:	5b                   	pop    %ebx
  401ed6:	c2 04 00             	ret    $0x4
  401ed9:	8d b4 26 00 00 00 00 	lea    0x0(%esi,%eiz,1),%esi
  401ee0:	c7 44 24 04 01 00 00 	movl   $0x1,0x4(%esp)
  401ee7:	00 
  401ee8:	c7 04 24 08 00 00 00 	movl   $0x8,(%esp)
  401eef:	e8 ec 61 00 00       	call   4080e0 <_signal>
  401ef4:	e8 67 f9 ff ff       	call   401860 <__fpreset>
  401ef9:	b8 ff ff ff ff       	mov    $0xffffffff,%eax
  401efe:	eb d2                	jmp    401ed2 <__gnu_exception_handler@4+0x132>
  401f00:	c7 04 24 08 00 00 00 	movl   $0x8,(%esp)
  401f07:	ff d0                	call   *%eax
  401f09:	b8 ff ff ff ff       	mov    $0xffffffff,%eax
  401f0e:	eb c2                	jmp    401ed2 <__gnu_exception_handler@4+0x132>
  401f10:	c7 44 24 04 01 00 00 	movl   $0x1,0x4(%esp)
  401f17:	00 
  401f18:	c7 04 24 0b 00 00 00 	movl   $0xb,(%esp)
  401f1f:	e8 bc 61 00 00       	call   4080e0 <_signal>
  401f24:	83 c8 ff             	or     $0xffffffff,%eax
  401f27:	eb a9                	jmp    401ed2 <__gnu_exception_handler@4+0x132>
  401f29:	c7 44 24 04 01 00 00 	movl   $0x1,0x4(%esp)
  401f30:	00 
  401f31:	c7 04 24 04 00 00 00 	movl   $0x4,(%esp)
  401f38:	e8 a3 61 00 00       	call   4080e0 <_signal>
  401f3d:	83 c8 ff             	or     $0xffffffff,%eax
  401f40:	eb 90                	jmp    401ed2 <__gnu_exception_handler@4+0x132>
  401f42:	90                   	nop
  401f43:	90                   	nop
  401f44:	90                   	nop
  401f45:	90                   	nop
  401f46:	90                   	nop
  401f47:	90                   	nop
  401f48:	90                   	nop
  401f49:	90                   	nop
  401f4a:	90                   	nop
  401f4b:	90                   	nop
  401f4c:	90                   	nop
  401f4d:	90                   	nop
  401f4e:	90                   	nop
  401f4f:	90                   	nop

00401f50 <___mingwthr_run_key_dtors.part.0>:
  401f50:	55                   	push   %ebp
  401f51:	57                   	push   %edi
  401f52:	56                   	push   %esi
  401f53:	53                   	push   %ebx
  401f54:	83 ec 1c             	sub    $0x1c,%esp
  401f57:	c7 04 24 8c d0 40 00 	movl   $0x40d08c,(%esp)
  401f5e:	ff 15 24 e1 40 00    	call   *0x40e124
  401f64:	8b 1d 84 d0 40 00    	mov    0x40d084,%ebx
  401f6a:	83 ec 04             	sub    $0x4,%esp
  401f6d:	85 db                	test   %ebx,%ebx
  401f6f:	74 34                	je     401fa5 <___mingwthr_run_key_dtors.part.0+0x55>
  401f71:	8b 2d 5c e1 40 00    	mov    0x40e15c,%ebp
  401f77:	8b 3d 2c e1 40 00    	mov    0x40e12c,%edi
  401f7d:	8d 76 00             	lea    0x0(%esi),%esi
  401f80:	8b 03                	mov    (%ebx),%eax
  401f82:	89 04 24             	mov    %eax,(%esp)
  401f85:	ff d5                	call   *%ebp
  401f87:	83 ec 04             	sub    $0x4,%esp
  401f8a:	89 c6                	mov    %eax,%esi
  401f8c:	ff d7                	call   *%edi
  401f8e:	85 c0                	test   %eax,%eax
  401f90:	75 0c                	jne    401f9e <___mingwthr_run_key_dtors.part.0+0x4e>
  401f92:	85 f6                	test   %esi,%esi
  401f94:	74 08                	je     401f9e <___mingwthr_run_key_dtors.part.0+0x4e>
  401f96:	8b 43 04             	mov    0x4(%ebx),%eax
  401f99:	89 34 24             	mov    %esi,(%esp)
  401f9c:	ff d0                	call   *%eax
  401f9e:	8b 5b 08             	mov    0x8(%ebx),%ebx
  401fa1:	85 db                	test   %ebx,%ebx
  401fa3:	75 db                	jne    401f80 <___mingwthr_run_key_dtors.part.0+0x30>
  401fa5:	c7 04 24 8c d0 40 00 	movl   $0x40d08c,(%esp)
  401fac:	ff 15 48 e1 40 00    	call   *0x40e148
  401fb2:	83 ec 04             	sub    $0x4,%esp
  401fb5:	83 c4 1c             	add    $0x1c,%esp
  401fb8:	5b                   	pop    %ebx
  401fb9:	5e                   	pop    %esi
  401fba:	5f                   	pop    %edi
  401fbb:	5d                   	pop    %ebp
  401fbc:	c3                   	ret
  401fbd:	8d 76 00             	lea    0x0(%esi),%esi

00401fc0 <____w64_mingwthr_add_key_dtor>:
  401fc0:	a1 88 d0 40 00       	mov    0x40d088,%eax
  401fc5:	85 c0                	test   %eax,%eax
  401fc7:	75 07                	jne    401fd0 <____w64_mingwthr_add_key_dtor+0x10>
  401fc9:	c3                   	ret
  401fca:	8d b6 00 00 00 00    	lea    0x0(%esi),%esi
  401fd0:	53                   	push   %ebx
  401fd1:	83 ec 18             	sub    $0x18,%esp
  401fd4:	c7 44 24 04 0c 00 00 	movl   $0xc,0x4(%esp)
  401fdb:	00 
  401fdc:	c7 04 24 01 00 00 00 	movl   $0x1,(%esp)
  401fe3:	e8 a8 60 00 00       	call   408090 <_calloc>
  401fe8:	89 c3                	mov    %eax,%ebx
  401fea:	85 c0                	test   %eax,%eax
  401fec:	74 42                	je     402030 <____w64_mingwthr_add_key_dtor+0x70>
  401fee:	8b 44 24 20          	mov    0x20(%esp),%eax
  401ff2:	c7 04 24 8c d0 40 00 	movl   $0x40d08c,(%esp)
  401ff9:	89 03                	mov    %eax,(%ebx)
  401ffb:	8b 44 24 24          	mov    0x24(%esp),%eax
  401fff:	89 43 04             	mov    %eax,0x4(%ebx)
  402002:	ff 15 24 e1 40 00    	call   *0x40e124
  402008:	a1 84 d0 40 00       	mov    0x40d084,%eax
  40200d:	89 1d 84 d0 40 00    	mov    %ebx,0x40d084
  402013:	83 ec 04             	sub    $0x4,%esp
  402016:	89 43 08             	mov    %eax,0x8(%ebx)
  402019:	c7 04 24 8c d0 40 00 	movl   $0x40d08c,(%esp)
  402020:	ff 15 48 e1 40 00    	call   *0x40e148
  402026:	31 c0                	xor    %eax,%eax
  402028:	83 ec 04             	sub    $0x4,%esp
  40202b:	83 c4 18             	add    $0x18,%esp
  40202e:	5b                   	pop    %ebx
  40202f:	c3                   	ret
  402030:	83 c8 ff             	or     $0xffffffff,%eax
  402033:	eb f6                	jmp    40202b <____w64_mingwthr_add_key_dtor+0x6b>
  402035:	8d b4 26 00 00 00 00 	lea    0x0(%esi,%eiz,1),%esi
  40203c:	8d 74 26 00          	lea    0x0(%esi,%eiz,1),%esi

00402040 <____w64_mingwthr_remove_key_dtor>:
  402040:	53                   	push   %ebx
  402041:	83 ec 18             	sub    $0x18,%esp
  402044:	a1 88 d0 40 00       	mov    0x40d088,%eax
  402049:	8b 5c 24 20          	mov    0x20(%esp),%ebx
  40204d:	85 c0                	test   %eax,%eax
  40204f:	75 0f                	jne    402060 <____w64_mingwthr_remove_key_dtor+0x20>
  402051:	83 c4 18             	add    $0x18,%esp
  402054:	31 c0                	xor    %eax,%eax
  402056:	5b                   	pop    %ebx
  402057:	c3                   	ret
  402058:	8d b4 26 00 00 00 00 	lea    0x0(%esi,%eiz,1),%esi
  40205f:	90                   	nop
  402060:	c7 04 24 8c d0 40 00 	movl   $0x40d08c,(%esp)
  402067:	ff 15 24 e1 40 00    	call   *0x40e124
  40206d:	a1 84 d0 40 00       	mov    0x40d084,%eax
  402072:	83 ec 04             	sub    $0x4,%esp
  402075:	85 c0                	test   %eax,%eax
  402077:	74 27                	je     4020a0 <____w64_mingwthr_remove_key_dtor+0x60>
  402079:	31 c9                	xor    %ecx,%ecx
  40207b:	eb 0b                	jmp    402088 <____w64_mingwthr_remove_key_dtor+0x48>
  40207d:	8d 76 00             	lea    0x0(%esi),%esi
  402080:	89 c1                	mov    %eax,%ecx
  402082:	85 d2                	test   %edx,%edx
  402084:	74 1a                	je     4020a0 <____w64_mingwthr_remove_key_dtor+0x60>
  402086:	89 d0                	mov    %edx,%eax
  402088:	8b 10                	mov    (%eax),%edx
  40208a:	39 da                	cmp    %ebx,%edx
  40208c:	8b 50 08             	mov    0x8(%eax),%edx
  40208f:	75 ef                	jne    402080 <____w64_mingwthr_remove_key_dtor+0x40>
  402091:	85 c9                	test   %ecx,%ecx
  402093:	74 2b                	je     4020c0 <____w64_mingwthr_remove_key_dtor+0x80>
  402095:	89 51 08             	mov    %edx,0x8(%ecx)
  402098:	89 04 24             	mov    %eax,(%esp)
  40209b:	e8 10 60 00 00       	call   4080b0 <_free>
  4020a0:	c7 04 24 8c d0 40 00 	movl   $0x40d08c,(%esp)
  4020a7:	ff 15 48 e1 40 00    	call   *0x40e148
  4020ad:	31 c0                	xor    %eax,%eax
  4020af:	83 ec 04             	sub    $0x4,%esp
  4020b2:	83 c4 18             	add    $0x18,%esp
  4020b5:	5b                   	pop    %ebx
  4020b6:	c3                   	ret
  4020b7:	8d b4 26 00 00 00 00 	lea    0x0(%esi,%eiz,1),%esi
  4020be:	66 90                	xchg   %ax,%ax
  4020c0:	89 15 84 d0 40 00    	mov    %edx,0x40d084
  4020c6:	eb d0                	jmp    402098 <____w64_mingwthr_remove_key_dtor+0x58>
  4020c8:	8d b4 26 00 00 00 00 	lea    0x0(%esi,%eiz,1),%esi
  4020cf:	90                   	nop

004020d0 <___mingw_TLScallback>:
  4020d0:	53                   	push   %ebx
  4020d1:	83 ec 18             	sub    $0x18,%esp
  4020d4:	8b 44 24 24          	mov    0x24(%esp),%eax
  4020d8:	83 f8 02             	cmp    $0x2,%eax
  4020db:	74 43                	je     402120 <___mingw_TLScallback+0x50>
  4020dd:	77 29                	ja     402108 <___mingw_TLScallback+0x38>
  4020df:	85 c0                	test   %eax,%eax
  4020e1:	74 4d                	je     402130 <___mingw_TLScallback+0x60>
  4020e3:	a1 88 d0 40 00       	mov    0x40d088,%eax
  4020e8:	85 c0                	test   %eax,%eax
  4020ea:	0f 84 b0 00 00 00    	je     4021a0 <___mingw_TLScallback+0xd0>
  4020f0:	c7 05 88 d0 40 00 01 	movl   $0x1,0x40d088
  4020f7:	00 00 00 
  4020fa:	83 c4 18             	add    $0x18,%esp
  4020fd:	b8 01 00 00 00       	mov    $0x1,%eax
  402102:	5b                   	pop    %ebx
  402103:	c3                   	ret
  402104:	8d 74 26 00          	lea    0x0(%esi,%eiz,1),%esi
  402108:	83 f8 03             	cmp    $0x3,%eax
  40210b:	75 ed                	jne    4020fa <___mingw_TLScallback+0x2a>
  40210d:	a1 88 d0 40 00       	mov    0x40d088,%eax
  402112:	85 c0                	test   %eax,%eax
  402114:	74 e4                	je     4020fa <___mingw_TLScallback+0x2a>
  402116:	e8 35 fe ff ff       	call   401f50 <___mingwthr_run_key_dtors.part.0>
  40211b:	eb dd                	jmp    4020fa <___mingw_TLScallback+0x2a>
  40211d:	8d 76 00             	lea    0x0(%esi),%esi
  402120:	e8 3b f7 ff ff       	call   401860 <__fpreset>
  402125:	83 c4 18             	add    $0x18,%esp
  402128:	b8 01 00 00 00       	mov    $0x1,%eax
  40212d:	5b                   	pop    %ebx
  40212e:	c3                   	ret
  40212f:	90                   	nop
  402130:	a1 88 d0 40 00       	mov    0x40d088,%eax
  402135:	85 c0                	test   %eax,%eax
  402137:	75 57                	jne    402190 <___mingw_TLScallback+0xc0>
  402139:	a1 88 d0 40 00       	mov    0x40d088,%eax
  40213e:	83 f8 01             	cmp    $0x1,%eax
  402141:	75 b7                	jne    4020fa <___mingw_TLScallback+0x2a>
  402143:	8b 1d 84 d0 40 00    	mov    0x40d084,%ebx
  402149:	85 db                	test   %ebx,%ebx
  40214b:	74 14                	je     402161 <___mingw_TLScallback+0x91>
  40214d:	8d 76 00             	lea    0x0(%esi),%esi
  402150:	89 d8                	mov    %ebx,%eax
  402152:	8b 5b 08             	mov    0x8(%ebx),%ebx
  402155:	89 04 24             	mov    %eax,(%esp)
  402158:	e8 53 5f 00 00       	call   4080b0 <_free>
  40215d:	85 db                	test   %ebx,%ebx
  40215f:	75 ef                	jne    402150 <___mingw_TLScallback+0x80>
  402161:	c7 05 84 d0 40 00 00 	movl   $0x0,0x40d084
  402168:	00 00 00 
  40216b:	c7 05 88 d0 40 00 00 	movl   $0x0,0x40d088
  402172:	00 00 00 
  402175:	c7 04 24 8c d0 40 00 	movl   $0x40d08c,(%esp)
  40217c:	ff 15 20 e1 40 00    	call   *0x40e120
  402182:	83 ec 04             	sub    $0x4,%esp
  402185:	e9 70 ff ff ff       	jmp    4020fa <___mingw_TLScallback+0x2a>
  40218a:	8d b6 00 00 00 00    	lea    0x0(%esi),%esi
  402190:	e8 bb fd ff ff       	call   401f50 <___mingwthr_run_key_dtors.part.0>
  402195:	eb a2                	jmp    402139 <___mingw_TLScallback+0x69>
  402197:	8d b4 26 00 00 00 00 	lea    0x0(%esi,%eiz,1),%esi
  40219e:	66 90                	xchg   %ax,%ax
  4021a0:	c7 04 24 8c d0 40 00 	movl   $0x40d08c,(%esp)
  4021a7:	ff 15 40 e1 40 00    	call   *0x40e140
  4021ad:	83 ec 04             	sub    $0x4,%esp
  4021b0:	e9 3b ff ff ff       	jmp    4020f0 <___mingw_TLScallback+0x20>
  4021b5:	90                   	nop
  4021b6:	90                   	nop
  4021b7:	90                   	nop
  4021b8:	90                   	nop
  4021b9:	90                   	nop
  4021ba:	90                   	nop
  4021bb:	90                   	nop
  4021bc:	90                   	nop
  4021bd:	90                   	nop
  4021be:	90                   	nop
  4021bf:	90                   	nop

004021c0 <__ValidateImageBase>:
  4021c0:	8b 44 24 04          	mov    0x4(%esp),%eax
  4021c4:	31 d2                	xor    %edx,%edx
  4021c6:	66 81 38 4d 5a       	cmpw   $0x5a4d,(%eax)
  4021cb:	75 0b                	jne    4021d8 <__ValidateImageBase+0x18>
  4021cd:	03 40 3c             	add    0x3c(%eax),%eax
  4021d0:	81 38 50 45 00 00    	cmpl   $0x4550,(%eax)
  4021d6:	74 08                	je     4021e0 <__ValidateImageBase+0x20>
  4021d8:	89 d0                	mov    %edx,%eax
  4021da:	c3                   	ret
  4021db:	8d 74 26 00          	lea    0x0(%esi,%eiz,1),%esi
  4021df:	90                   	nop
  4021e0:	31 d2                	xor    %edx,%edx
  4021e2:	66 81 78 18 0b 01    	cmpw   $0x10b,0x18(%eax)
  4021e8:	0f 94 c2             	sete   %dl
  4021eb:	89 d0                	mov    %edx,%eax
  4021ed:	c3                   	ret
  4021ee:	66 90                	xchg   %ax,%ax

004021f0 <__FindPESection>:
  4021f0:	56                   	push   %esi
  4021f1:	53                   	push   %ebx
  4021f2:	8b 54 24 0c          	mov    0xc(%esp),%edx
  4021f6:	8b 5c 24 10          	mov    0x10(%esp),%ebx
  4021fa:	03 52 3c             	add    0x3c(%edx),%edx
  4021fd:	0f b7 42 14          	movzwl 0x14(%edx),%eax
  402201:	0f b7 72 06          	movzwl 0x6(%edx),%esi
  402205:	8d 44 02 18          	lea    0x18(%edx,%eax,1),%eax
  402209:	85 f6                	test   %esi,%esi
  40220b:	74 1b                	je     402228 <__FindPESection+0x38>
  40220d:	31 c9                	xor    %ecx,%ecx
  40220f:	90                   	nop
  402210:	8b 50 0c             	mov    0xc(%eax),%edx
  402213:	39 da                	cmp    %ebx,%edx
  402215:	77 07                	ja     40221e <__FindPESection+0x2e>
  402217:	03 50 08             	add    0x8(%eax),%edx
  40221a:	39 da                	cmp    %ebx,%edx
  40221c:	77 0c                	ja     40222a <__FindPESection+0x3a>
  40221e:	83 c1 01             	add    $0x1,%ecx
  402221:	83 c0 28             	add    $0x28,%eax
  402224:	39 f1                	cmp    %esi,%ecx
  402226:	75 e8                	jne    402210 <__FindPESection+0x20>
  402228:	31 c0                	xor    %eax,%eax
  40222a:	5b                   	pop    %ebx
  40222b:	5e                   	pop    %esi
  40222c:	c3                   	ret
  40222d:	8d 76 00             	lea    0x0(%esi),%esi

00402230 <__FindPESectionByName>:
  402230:	55                   	push   %ebp
  402231:	57                   	push   %edi
  402232:	56                   	push   %esi
  402233:	53                   	push   %ebx
  402234:	31 db                	xor    %ebx,%ebx
  402236:	83 ec 1c             	sub    $0x1c,%esp
  402239:	8b 7c 24 30          	mov    0x30(%esp),%edi
  40223d:	89 3c 24             	mov    %edi,(%esp)
  402240:	e8 ab 5e 00 00       	call   4080f0 <_strlen>
  402245:	83 f8 08             	cmp    $0x8,%eax
  402248:	77 68                	ja     4022b2 <__FindPESectionByName+0x82>
  40224a:	66 81 3d 00 00 40 00 	cmpw   $0x5a4d,0x400000
  402251:	4d 5a 
  402253:	75 5d                	jne    4022b2 <__FindPESectionByName+0x82>
  402255:	8b 15 3c 00 40 00    	mov    0x40003c,%edx
  40225b:	81 ba 00 00 40 00 50 	cmpl   $0x4550,0x400000(%edx)
  402262:	45 00 00 
  402265:	8d 82 00 00 40 00    	lea    0x400000(%edx),%eax
  40226b:	75 45                	jne    4022b2 <__FindPESectionByName+0x82>
  40226d:	66 81 ba 18 00 40 00 	cmpw   $0x10b,0x400018(%edx)
  402274:	0b 01 
  402276:	75 3a                	jne    4022b2 <__FindPESectionByName+0x82>
  402278:	0f b7 92 14 00 40 00 	movzwl 0x400014(%edx),%edx
  40227f:	0f b7 68 06          	movzwl 0x6(%eax),%ebp
  402283:	8d 5c 10 18          	lea    0x18(%eax,%edx,1),%ebx
  402287:	85 ed                	test   %ebp,%ebp
  402289:	74 35                	je     4022c0 <__FindPESectionByName+0x90>
  40228b:	31 f6                	xor    %esi,%esi
  40228d:	eb 0b                	jmp    40229a <__FindPESectionByName+0x6a>
  40228f:	90                   	nop
  402290:	83 c6 01             	add    $0x1,%esi
  402293:	83 c3 28             	add    $0x28,%ebx
  402296:	39 f5                	cmp    %esi,%ebp
  402298:	74 26                	je     4022c0 <__FindPESectionByName+0x90>
  40229a:	c7 44 24 08 08 00 00 	movl   $0x8,0x8(%esp)
  4022a1:	00 
  4022a2:	89 7c 24 04          	mov    %edi,0x4(%esp)
  4022a6:	89 1c 24             	mov    %ebx,(%esp)
  4022a9:	e8 4a 5e 00 00       	call   4080f8 <_strncmp>
  4022ae:	85 c0                	test   %eax,%eax
  4022b0:	75 de                	jne    402290 <__FindPESectionByName+0x60>
  4022b2:	83 c4 1c             	add    $0x1c,%esp
  4022b5:	89 d8                	mov    %ebx,%eax
  4022b7:	5b                   	pop    %ebx
  4022b8:	5e                   	pop    %esi
  4022b9:	5f                   	pop    %edi
  4022ba:	5d                   	pop    %ebp
  4022bb:	c3                   	ret
  4022bc:	8d 74 26 00          	lea    0x0(%esi,%eiz,1),%esi
  4022c0:	83 c4 1c             	add    $0x1c,%esp
  4022c3:	31 db                	xor    %ebx,%ebx
  4022c5:	89 d8                	mov    %ebx,%eax
  4022c7:	5b                   	pop    %ebx
  4022c8:	5e                   	pop    %esi
  4022c9:	5f                   	pop    %edi
  4022ca:	5d                   	pop    %ebp
  4022cb:	c3                   	ret
  4022cc:	8d 74 26 00          	lea    0x0(%esi,%eiz,1),%esi

004022d0 <___mingw_GetSectionForAddress>:
  4022d0:	31 c0                	xor    %eax,%eax
  4022d2:	66 81 3d 00 00 40 00 	cmpw   $0x5a4d,0x400000
  4022d9:	4d 5a 
  4022db:	75 18                	jne    4022f5 <___mingw_GetSectionForAddress+0x25>
  4022dd:	8b 0d 3c 00 40 00    	mov    0x40003c,%ecx
  4022e3:	81 b9 00 00 40 00 50 	cmpl   $0x4550,0x400000(%ecx)
  4022ea:	45 00 00 
  4022ed:	8d 91 00 00 40 00    	lea    0x400000(%ecx),%edx
  4022f3:	74 0b                	je     402300 <___mingw_GetSectionForAddress+0x30>
  4022f5:	c3                   	ret
  4022f6:	8d b4 26 00 00 00 00 	lea    0x0(%esi,%eiz,1),%esi
  4022fd:	8d 76 00             	lea    0x0(%esi),%esi
  402300:	66 81 b9 18 00 40 00 	cmpw   $0x10b,0x400018(%ecx)
  402307:	0b 01 
  402309:	75 ea                	jne    4022f5 <___mingw_GetSectionForAddress+0x25>
  40230b:	56                   	push   %esi
  40230c:	0f b7 81 14 00 40 00 	movzwl 0x400014(%ecx),%eax
  402313:	53                   	push   %ebx
  402314:	0f b7 b1 06 00 40 00 	movzwl 0x400006(%ecx),%esi
  40231b:	8b 5c 24 0c          	mov    0xc(%esp),%ebx
  40231f:	8d 44 02 18          	lea    0x18(%edx,%eax,1),%eax
  402323:	81 eb 00 00 40 00    	sub    $0x400000,%ebx
  402329:	85 f6                	test   %esi,%esi
  40232b:	74 1b                	je     402348 <___mingw_GetSectionForAddress+0x78>
  40232d:	31 c9                	xor    %ecx,%ecx
  40232f:	90                   	nop
  402330:	8b 50 0c             	mov    0xc(%eax),%edx
  402333:	39 d3                	cmp    %edx,%ebx
  402335:	72 07                	jb     40233e <___mingw_GetSectionForAddress+0x6e>
  402337:	03 50 08             	add    0x8(%eax),%edx
  40233a:	39 d3                	cmp    %edx,%ebx
  40233c:	72 0c                	jb     40234a <___mingw_GetSectionForAddress+0x7a>
  40233e:	83 c1 01             	add    $0x1,%ecx
  402341:	83 c0 28             	add    $0x28,%eax
  402344:	39 f1                	cmp    %esi,%ecx
  402346:	75 e8                	jne    402330 <___mingw_GetSectionForAddress+0x60>
  402348:	31 c0                	xor    %eax,%eax
  40234a:	5b                   	pop    %ebx
  40234b:	5e                   	pop    %esi
  40234c:	c3                   	ret
  40234d:	8d 76 00             	lea    0x0(%esi),%esi

00402350 <___mingw_GetSectionCount>:
  402350:	31 c0                	xor    %eax,%eax
  402352:	66 81 3d 00 00 40 00 	cmpw   $0x5a4d,0x400000
  402359:	4d 5a 
  40235b:	75 12                	jne    40236f <___mingw_GetSectionCount+0x1f>
  40235d:	8b 15 3c 00 40 00    	mov    0x40003c,%edx
  402363:	81 ba 00 00 40 00 50 	cmpl   $0x4550,0x400000(%edx)
  40236a:	45 00 00 
  40236d:	74 01                	je     402370 <___mingw_GetSectionCount+0x20>
  40236f:	c3                   	ret
  402370:	66 81 ba 18 00 40 00 	cmpw   $0x10b,0x400018(%edx)
  402377:	0b 01 
  402379:	75 f4                	jne    40236f <___mingw_GetSectionCount+0x1f>
  40237b:	0f b7 82 06 00 40 00 	movzwl 0x400006(%edx),%eax
  402382:	c3                   	ret
  402383:	8d b4 26 00 00 00 00 	lea    0x0(%esi,%eiz,1),%esi
  40238a:	8d b6 00 00 00 00    	lea    0x0(%esi),%esi

00402390 <__FindPESectionExec>:
  402390:	31 c0                	xor    %eax,%eax
  402392:	53                   	push   %ebx
  402393:	8b 4c 24 08          	mov    0x8(%esp),%ecx
  402397:	66 81 3d 00 00 40 00 	cmpw   $0x5a4d,0x400000
  40239e:	4d 5a 
  4023a0:	75 18                	jne    4023ba <__FindPESectionExec+0x2a>
  4023a2:	8b 1d 3c 00 40 00    	mov    0x40003c,%ebx
  4023a8:	81 bb 00 00 40 00 50 	cmpl   $0x4550,0x400000(%ebx)
  4023af:	45 00 00 
  4023b2:	8d 93 00 00 40 00    	lea    0x400000(%ebx),%edx
  4023b8:	74 06                	je     4023c0 <__FindPESectionExec+0x30>
  4023ba:	5b                   	pop    %ebx
  4023bb:	c3                   	ret
  4023bc:	8d 74 26 00          	lea    0x0(%esi,%eiz,1),%esi
  4023c0:	66 81 bb 18 00 40 00 	cmpw   $0x10b,0x400018(%ebx)
  4023c7:	0b 01 
  4023c9:	75 ef                	jne    4023ba <__FindPESectionExec+0x2a>
  4023cb:	0f b7 83 14 00 40 00 	movzwl 0x400014(%ebx),%eax
  4023d2:	0f b7 9b 06 00 40 00 	movzwl 0x400006(%ebx),%ebx
  4023d9:	8d 44 02 18          	lea    0x18(%edx,%eax,1),%eax
  4023dd:	85 db                	test   %ebx,%ebx
  4023df:	74 1e                	je     4023ff <__FindPESectionExec+0x6f>
  4023e1:	31 d2                	xor    %edx,%edx
  4023e3:	8d 74 26 00          	lea    0x0(%esi,%eiz,1),%esi
  4023e7:	90                   	nop
  4023e8:	f6 40 27 20          	testb  $0x20,0x27(%eax)
  4023ec:	74 07                	je     4023f5 <__FindPESectionExec+0x65>
  4023ee:	85 c9                	test   %ecx,%ecx
  4023f0:	74 c8                	je     4023ba <__FindPESectionExec+0x2a>
  4023f2:	83 e9 01             	sub    $0x1,%ecx
  4023f5:	83 c2 01             	add    $0x1,%edx
  4023f8:	83 c0 28             	add    $0x28,%eax
  4023fb:	39 d3                	cmp    %edx,%ebx
  4023fd:	75 e9                	jne    4023e8 <__FindPESectionExec+0x58>
  4023ff:	31 c0                	xor    %eax,%eax
  402401:	5b                   	pop    %ebx
  402402:	c3                   	ret
  402403:	8d b4 26 00 00 00 00 	lea    0x0(%esi,%eiz,1),%esi
  40240a:	8d b6 00 00 00 00    	lea    0x0(%esi),%esi

00402410 <__GetPEImageBase>:
  402410:	31 c0                	xor    %eax,%eax
  402412:	66 81 3d 00 00 40 00 	cmpw   $0x5a4d,0x400000
  402419:	4d 5a 
  40241b:	75 12                	jne    40242f <__GetPEImageBase+0x1f>
  40241d:	8b 15 3c 00 40 00    	mov    0x40003c,%edx
  402423:	81 ba 00 00 40 00 50 	cmpl   $0x4550,0x400000(%edx)
  40242a:	45 00 00 
  40242d:	74 01                	je     402430 <__GetPEImageBase+0x20>
  40242f:	c3                   	ret
  402430:	66 81 ba 18 00 40 00 	cmpw   $0x10b,0x400018(%edx)
  402437:	0b 01 
  402439:	ba 00 00 40 00       	mov    $0x400000,%edx
  40243e:	0f 44 c2             	cmove  %edx,%eax
  402441:	c3                   	ret
  402442:	8d b4 26 00 00 00 00 	lea    0x0(%esi,%eiz,1),%esi
  402449:	8d b4 26 00 00 00 00 	lea    0x0(%esi,%eiz,1),%esi

00402450 <__IsNonwritableInCurrentImage>:
  402450:	31 c0                	xor    %eax,%eax
  402452:	66 81 3d 00 00 40 00 	cmpw   $0x5a4d,0x400000
  402459:	4d 5a 
  40245b:	75 18                	jne    402475 <__IsNonwritableInCurrentImage+0x25>
  40245d:	8b 15 3c 00 40 00    	mov    0x40003c,%edx
  402463:	81 ba 00 00 40 00 50 	cmpl   $0x4550,0x400000(%edx)
  40246a:	45 00 00 
  40246d:	8d 8a 00 00 40 00    	lea    0x400000(%edx),%ecx
  402473:	74 0b                	je     402480 <__IsNonwritableInCurrentImage+0x30>
  402475:	c3                   	ret
  402476:	8d b4 26 00 00 00 00 	lea    0x0(%esi,%eiz,1),%esi
  40247d:	8d 76 00             	lea    0x0(%esi),%esi
  402480:	66 81 ba 18 00 40 00 	cmpw   $0x10b,0x400018(%edx)
  402487:	0b 01 
  402489:	75 ea                	jne    402475 <__IsNonwritableInCurrentImage+0x25>
  40248b:	56                   	push   %esi
  40248c:	0f b7 92 14 00 40 00 	movzwl 0x400014(%edx),%edx
  402493:	53                   	push   %ebx
  402494:	8b 5c 24 0c          	mov    0xc(%esp),%ebx
  402498:	0f b7 71 06          	movzwl 0x6(%ecx),%esi
  40249c:	8d 54 11 18          	lea    0x18(%ecx,%edx,1),%edx
  4024a0:	81 eb 00 00 40 00    	sub    $0x400000,%ebx
  4024a6:	85 f6                	test   %esi,%esi
  4024a8:	74 20                	je     4024ca <__IsNonwritableInCurrentImage+0x7a>
  4024aa:	31 c9                	xor    %ecx,%ecx
  4024ac:	8d 74 26 00          	lea    0x0(%esi,%eiz,1),%esi
  4024b0:	8b 42 0c             	mov    0xc(%edx),%eax
  4024b3:	39 c3                	cmp    %eax,%ebx
  4024b5:	72 07                	jb     4024be <__IsNonwritableInCurrentImage+0x6e>
  4024b7:	03 42 08             	add    0x8(%edx),%eax
  4024ba:	39 c3                	cmp    %eax,%ebx
  4024bc:	72 12                	jb     4024d0 <__IsNonwritableInCurrentImage+0x80>
  4024be:	83 c1 01             	add    $0x1,%ecx
  4024c1:	83 c2 28             	add    $0x28,%edx
  4024c4:	39 ce                	cmp    %ecx,%esi
  4024c6:	75 e8                	jne    4024b0 <__IsNonwritableInCurrentImage+0x60>
  4024c8:	31 c0                	xor    %eax,%eax
  4024ca:	5b                   	pop    %ebx
  4024cb:	5e                   	pop    %esi
  4024cc:	c3                   	ret
  4024cd:	8d 76 00             	lea    0x0(%esi),%esi
  4024d0:	8b 42 24             	mov    0x24(%edx),%eax
  4024d3:	5b                   	pop    %ebx
  4024d4:	5e                   	pop    %esi
  4024d5:	f7 d0                	not    %eax
  4024d7:	c1 e8 1f             	shr    $0x1f,%eax
  4024da:	c3                   	ret
  4024db:	8d 74 26 00          	lea    0x0(%esi,%eiz,1),%esi
  4024df:	90                   	nop

004024e0 <___mingw_enum_import_library_names>:
  4024e0:	31 c9                	xor    %ecx,%ecx
  4024e2:	57                   	push   %edi
  4024e3:	66 81 3d 00 00 40 00 	cmpw   $0x5a4d,0x400000
  4024ea:	4d 5a 
  4024ec:	56                   	push   %esi
  4024ed:	53                   	push   %ebx
  4024ee:	8b 5c 24 10          	mov    0x10(%esp),%ebx
  4024f2:	75 17                	jne    40250b <___mingw_enum_import_library_names+0x2b>
  4024f4:	a1 3c 00 40 00       	mov    0x40003c,%eax
  4024f9:	81 b8 00 00 40 00 50 	cmpl   $0x4550,0x400000(%eax)
  402500:	45 00 00 
  402503:	8d b0 00 00 40 00    	lea    0x400000(%eax),%esi
  402509:	74 0d                	je     402518 <___mingw_enum_import_library_names+0x38>
  40250b:	5b                   	pop    %ebx
  40250c:	89 c8                	mov    %ecx,%eax
  40250e:	5e                   	pop    %esi
  40250f:	5f                   	pop    %edi
  402510:	c3                   	ret
  402511:	8d b4 26 00 00 00 00 	lea    0x0(%esi,%eiz,1),%esi
  402518:	66 81 b8 18 00 40 00 	cmpw   $0x10b,0x400018(%eax)
  40251f:	0b 01 
  402521:	75 e8                	jne    40250b <___mingw_enum_import_library_names+0x2b>
  402523:	8b 80 80 00 40 00    	mov    0x400080(%eax),%eax
  402529:	85 c0                	test   %eax,%eax
  40252b:	74 de                	je     40250b <___mingw_enum_import_library_names+0x2b>
  40252d:	0f b7 56 14          	movzwl 0x14(%esi),%edx
  402531:	0f b7 7e 06          	movzwl 0x6(%esi),%edi
  402535:	8d 54 16 18          	lea    0x18(%esi,%edx,1),%edx
  402539:	85 ff                	test   %edi,%edi
  40253b:	74 ce                	je     40250b <___mingw_enum_import_library_names+0x2b>
  40253d:	31 f6                	xor    %esi,%esi
  40253f:	90                   	nop
  402540:	8b 4a 0c             	mov    0xc(%edx),%ecx
  402543:	39 c8                	cmp    %ecx,%eax
  402545:	72 07                	jb     40254e <___mingw_enum_import_library_names+0x6e>
  402547:	03 4a 08             	add    0x8(%edx),%ecx
  40254a:	39 c8                	cmp    %ecx,%eax
  40254c:	72 12                	jb     402560 <___mingw_enum_import_library_names+0x80>
  40254e:	83 c6 01             	add    $0x1,%esi
  402551:	83 c2 28             	add    $0x28,%edx
  402554:	39 fe                	cmp    %edi,%esi
  402556:	75 e8                	jne    402540 <___mingw_enum_import_library_names+0x60>
  402558:	31 c9                	xor    %ecx,%ecx
  40255a:	5b                   	pop    %ebx
  40255b:	5e                   	pop    %esi
  40255c:	89 c8                	mov    %ecx,%eax
  40255e:	5f                   	pop    %edi
  40255f:	c3                   	ret
  402560:	05 00 00 40 00       	add    $0x400000,%eax
  402565:	eb 0f                	jmp    402576 <___mingw_enum_import_library_names+0x96>
  402567:	8d b4 26 00 00 00 00 	lea    0x0(%esi,%eiz,1),%esi
  40256e:	66 90                	xchg   %ax,%ax
  402570:	83 eb 01             	sub    $0x1,%ebx
  402573:	83 c0 14             	add    $0x14,%eax
  402576:	8b 48 04             	mov    0x4(%eax),%ecx
  402579:	85 c9                	test   %ecx,%ecx
  40257b:	75 07                	jne    402584 <___mingw_enum_import_library_names+0xa4>
  40257d:	8b 50 0c             	mov    0xc(%eax),%edx
  402580:	85 d2                	test   %edx,%edx
  402582:	74 d4                	je     402558 <___mingw_enum_import_library_names+0x78>
  402584:	85 db                	test   %ebx,%ebx
  402586:	7f e8                	jg     402570 <___mingw_enum_import_library_names+0x90>
  402588:	8b 48 0c             	mov    0xc(%eax),%ecx
  40258b:	5b                   	pop    %ebx
  40258c:	5e                   	pop    %esi
  40258d:	5f                   	pop    %edi
  40258e:	81 c1 00 00 40 00    	add    $0x400000,%ecx
  402594:	89 c8                	mov    %ecx,%eax
  402596:	c3                   	ret
  402597:	90                   	nop
  402598:	90                   	nop
  402599:	90                   	nop
  40259a:	90                   	nop
  40259b:	90                   	nop
  40259c:	90                   	nop
  40259d:	90                   	nop
  40259e:	90                   	nop
  40259f:	90                   	nop

004025a0 <___chkstk_ms>:
  4025a0:	51                   	push   %ecx
  4025a1:	50                   	push   %eax
  4025a2:	3d 00 10 00 00       	cmp    $0x1000,%eax
  4025a7:	8d 4c 24 0c          	lea    0xc(%esp),%ecx
  4025ab:	72 15                	jb     4025c2 <___chkstk_ms+0x22>
  4025ad:	81 e9 00 10 00 00    	sub    $0x1000,%ecx
  4025b3:	83 09 00             	orl    $0x0,(%ecx)
  4025b6:	2d 00 10 00 00       	sub    $0x1000,%eax
  4025bb:	3d 00 10 00 00       	cmp    $0x1000,%eax
  4025c0:	77 eb                	ja     4025ad <___chkstk_ms+0xd>
  4025c2:	29 c1                	sub    %eax,%ecx
  4025c4:	83 09 00             	orl    $0x0,(%ecx)
  4025c7:	58                   	pop    %eax
  4025c8:	59                   	pop    %ecx
  4025c9:	c3                   	ret
  4025ca:	90                   	nop
  4025cb:	90                   	nop

004025cc <.text>:
  4025cc:	66 90                	xchg   %ax,%ax
  4025ce:	66 90                	xchg   %ax,%ax

004025d0 <___mingw_vfprintf>:
  4025d0:	56                   	push   %esi
  4025d1:	53                   	push   %ebx
  4025d2:	83 ec 24             	sub    $0x24,%esp
  4025d5:	8b 74 24 30          	mov    0x30(%esp),%esi
  4025d9:	89 34 24             	mov    %esi,(%esp)
  4025dc:	e8 7f 53 00 00       	call   407960 <__lock_file>
  4025e1:	8b 44 24 38          	mov    0x38(%esp),%eax
  4025e5:	89 74 24 04          	mov    %esi,0x4(%esp)
  4025e9:	c7 44 24 08 00 00 00 	movl   $0x0,0x8(%esp)
  4025f0:	00 
  4025f1:	89 44 24 10          	mov    %eax,0x10(%esp)
  4025f5:	8b 44 24 34          	mov    0x34(%esp),%eax
  4025f9:	c7 04 24 00 60 00 00 	movl   $0x6000,(%esp)
  402600:	89 44 24 0c          	mov    %eax,0xc(%esp)
  402604:	e8 57 1c 00 00       	call   404260 <___mingw_pformat>
  402609:	89 34 24             	mov    %esi,(%esp)
  40260c:	89 c3                	mov    %eax,%ebx
  40260e:	e8 bd 53 00 00       	call   4079d0 <__unlock_file>
  402613:	83 c4 24             	add    $0x24,%esp
  402616:	89 d8                	mov    %ebx,%eax
  402618:	5b                   	pop    %ebx
  402619:	5e                   	pop    %esi
  40261a:	c3                   	ret
  40261b:	90                   	nop
  40261c:	90                   	nop
  40261d:	90                   	nop
  40261e:	90                   	nop
  40261f:	90                   	nop

00402620 <___pformat_cvt>:
  402620:	57                   	push   %edi
  402621:	56                   	push   %esi
  402622:	53                   	push   %ebx
  402623:	89 c3                	mov    %eax,%ebx
  402625:	83 ec 60             	sub    $0x60,%esp
  402628:	db 6c 24 70          	fldt   0x70(%esp)
  40262c:	d9 c0                	fld    %st(0)
  40262e:	db 7c 24 50          	fstpt  0x50(%esp)
  402632:	d9 e5                	fxam
  402634:	9b df e0             	fstsw  %ax
  402637:	f6 c4 01             	test   $0x1,%ah
  40263a:	74 24                	je     402660 <___pformat_cvt+0x40>
  40263c:	f6 c4 04             	test   $0x4,%ah
  40263f:	0f 84 93 00 00 00    	je     4026d8 <___pformat_cvt+0xb8>
  402645:	db 7c 24 30          	fstpt  0x30(%esp)
  402649:	31 c0                	xor    %eax,%eax
  40264b:	0f b7 7c 24 38       	movzwl 0x38(%esp),%edi
  402650:	c7 44 24 48 03 00 00 	movl   $0x3,0x48(%esp)
  402657:	00 
  402658:	eb 1c                	jmp    402676 <___pformat_cvt+0x56>
  40265a:	8d b6 00 00 00 00    	lea    0x0(%esi),%esi
  402660:	db 7c 24 20          	fstpt  0x20(%esp)
  402664:	0f b7 7c 24 28       	movzwl 0x28(%esp),%edi
  402669:	f6 c4 04             	test   $0x4,%ah
  40266c:	75 52                	jne    4026c0 <___pformat_cvt+0xa0>
  40266e:	31 f6                	xor    %esi,%esi
  402670:	31 c0                	xor    %eax,%eax
  402672:	89 74 24 48          	mov    %esi,0x48(%esp)
  402676:	81 e7 00 80 00 00    	and    $0x8000,%edi
  40267c:	8b 74 24 7c          	mov    0x7c(%esp),%esi
  402680:	89 3e                	mov    %edi,(%esi)
  402682:	8d 74 24 4c          	lea    0x4c(%esp),%esi
  402686:	89 54 24 14          	mov    %edx,0x14(%esp)
  40268a:	8d 54 24 48          	lea    0x48(%esp),%edx
  40268e:	89 54 24 0c          	mov    %edx,0xc(%esp)
  402692:	8d 54 24 50          	lea    0x50(%esp),%edx
  402696:	89 74 24 1c          	mov    %esi,0x1c(%esp)
  40269a:	89 5c 24 10          	mov    %ebx,0x10(%esp)
  40269e:	89 4c 24 18          	mov    %ecx,0x18(%esp)
  4026a2:	89 54 24 08          	mov    %edx,0x8(%esp)
  4026a6:	89 44 24 04          	mov    %eax,0x4(%esp)
  4026aa:	c7 04 24 20 90 40 00 	movl   $0x409020,(%esp)
  4026b1:	e8 2a 2b 00 00       	call   4051e0 <___gdtoa>
  4026b6:	83 c4 60             	add    $0x60,%esp
  4026b9:	5b                   	pop    %ebx
  4026ba:	5e                   	pop    %esi
  4026bb:	5f                   	pop    %edi
  4026bc:	c3                   	ret
  4026bd:	8d 76 00             	lea    0x0(%esi),%esi
  4026c0:	f6 c4 40             	test   $0x40,%ah
  4026c3:	74 2b                	je     4026f0 <___pformat_cvt+0xd0>
  4026c5:	be 02 00 00 00       	mov    $0x2,%esi
  4026ca:	b8 c3 bf ff ff       	mov    $0xffffbfc3,%eax
  4026cf:	eb a1                	jmp    402672 <___pformat_cvt+0x52>
  4026d1:	8d b4 26 00 00 00 00 	lea    0x0(%esi,%eiz,1),%esi
  4026d8:	dd d8                	fstp   %st(0)
  4026da:	c7 44 24 48 04 00 00 	movl   $0x4,0x48(%esp)
  4026e1:	00 
  4026e2:	31 c0                	xor    %eax,%eax
  4026e4:	31 ff                	xor    %edi,%edi
  4026e6:	eb 94                	jmp    40267c <___pformat_cvt+0x5c>
  4026e8:	8d b4 26 00 00 00 00 	lea    0x0(%esi,%eiz,1),%esi
  4026ef:	90                   	nop
  4026f0:	89 f8                	mov    %edi,%eax
  4026f2:	be 01 00 00 00       	mov    $0x1,%esi
  4026f7:	66 25 ff 7f          	and    $0x7fff,%ax
  4026fb:	66 2d 3e 40          	sub    $0x403e,%ax
  4026ff:	98                   	cwtl
  402700:	e9 6d ff ff ff       	jmp    402672 <___pformat_cvt+0x52>
  402705:	8d b4 26 00 00 00 00 	lea    0x0(%esi,%eiz,1),%esi
  40270c:	8d 74 26 00          	lea    0x0(%esi,%eiz,1),%esi

00402710 <___pformat_putc>:
  402710:	53                   	push   %ebx
  402711:	89 d3                	mov    %edx,%ebx
  402713:	89 c1                	mov    %eax,%ecx
  402715:	83 ec 18             	sub    $0x18,%esp
  402718:	8b 52 04             	mov    0x4(%edx),%edx
  40271b:	f6 c6 40             	test   $0x40,%dh
  40271e:	75 08                	jne    402728 <___pformat_putc+0x18>
  402720:	8b 43 20             	mov    0x20(%ebx),%eax
  402723:	39 43 24             	cmp    %eax,0x24(%ebx)
  402726:	7e 10                	jle    402738 <___pformat_putc+0x28>
  402728:	8b 03                	mov    (%ebx),%eax
  40272a:	80 e6 20             	and    $0x20,%dh
  40272d:	75 19                	jne    402748 <___pformat_putc+0x38>
  40272f:	8b 53 20             	mov    0x20(%ebx),%edx
  402732:	88 0c 10             	mov    %cl,(%eax,%edx,1)
  402735:	8b 43 20             	mov    0x20(%ebx),%eax
  402738:	83 c0 01             	add    $0x1,%eax
  40273b:	89 43 20             	mov    %eax,0x20(%ebx)
  40273e:	83 c4 18             	add    $0x18,%esp
  402741:	5b                   	pop    %ebx
  402742:	c3                   	ret
  402743:	8d 74 26 00          	lea    0x0(%esi,%eiz,1),%esi
  402747:	90                   	nop
  402748:	89 44 24 04          	mov    %eax,0x4(%esp)
  40274c:	89 0c 24             	mov    %ecx,(%esp)
  40274f:	e8 54 59 00 00       	call   4080a8 <_fputc>
  402754:	8b 43 20             	mov    0x20(%ebx),%eax
  402757:	83 c0 01             	add    $0x1,%eax
  40275a:	89 43 20             	mov    %eax,0x20(%ebx)
  40275d:	83 c4 18             	add    $0x18,%esp
  402760:	5b                   	pop    %ebx
  402761:	c3                   	ret
  402762:	8d b4 26 00 00 00 00 	lea    0x0(%esi,%eiz,1),%esi
  402769:	8d b4 26 00 00 00 00 	lea    0x0(%esi,%eiz,1),%esi

00402770 <___pformat_wputchars>:
  402770:	55                   	push   %ebp
  402771:	57                   	push   %edi
  402772:	56                   	push   %esi
  402773:	89 d6                	mov    %edx,%esi
  402775:	53                   	push   %ebx
  402776:	89 cb                	mov    %ecx,%ebx
  402778:	83 ec 4c             	sub    $0x4c,%esp
  40277b:	89 44 24 18          	mov    %eax,0x18(%esp)
  40277f:	8d 7c 24 30          	lea    0x30(%esp),%edi
  402783:	8d 44 24 28          	lea    0x28(%esp),%eax
  402787:	89 44 24 08          	mov    %eax,0x8(%esp)
  40278b:	c7 44 24 04 00 00 00 	movl   $0x0,0x4(%esp)
  402792:	00 
  402793:	89 3c 24             	mov    %edi,(%esp)
  402796:	e8 75 53 00 00       	call   407b10 <_wcrtomb>
  40279b:	8b 43 0c             	mov    0xc(%ebx),%eax
  40279e:	39 c6                	cmp    %eax,%esi
  4027a0:	89 c2                	mov    %eax,%edx
  4027a2:	0f 4e d6             	cmovle %esi,%edx
  4027a5:	85 c0                	test   %eax,%eax
  4027a7:	8b 43 08             	mov    0x8(%ebx),%eax
  4027aa:	0f 49 f2             	cmovns %edx,%esi
  4027ad:	39 f0                	cmp    %esi,%eax
  4027af:	0f 8f d4 00 00 00    	jg     402889 <___pformat_wputchars+0x119>
  4027b5:	c7 43 08 ff ff ff ff 	movl   $0xffffffff,0x8(%ebx)
  4027bc:	85 f6                	test   %esi,%esi
  4027be:	0f 8e 0a 01 00 00    	jle    4028ce <___pformat_wputchars+0x15e>
  4027c4:	89 74 24 1c          	mov    %esi,0x1c(%esp)
  4027c8:	8d b4 26 00 00 00 00 	lea    0x0(%esi,%eiz,1),%esi
  4027cf:	90                   	nop
  4027d0:	83 44 24 18 02       	addl   $0x2,0x18(%esp)
  4027d5:	8b 44 24 18          	mov    0x18(%esp),%eax
  4027d9:	8d 4c 24 28          	lea    0x28(%esp),%ecx
  4027dd:	89 4c 24 08          	mov    %ecx,0x8(%esp)
  4027e1:	0f b7 40 fe          	movzwl -0x2(%eax),%eax
  4027e5:	89 3c 24             	mov    %edi,(%esp)
  4027e8:	89 44 24 04          	mov    %eax,0x4(%esp)
  4027ec:	e8 1f 53 00 00       	call   407b10 <_wcrtomb>
  4027f1:	85 c0                	test   %eax,%eax
  4027f3:	7e 7f                	jle    402874 <___pformat_wputchars+0x104>
  4027f5:	8d 2c 07             	lea    (%edi,%eax,1),%ebp
  4027f8:	89 fe                	mov    %edi,%esi
  4027fa:	eb 17                	jmp    402813 <___pformat_wputchars+0xa3>
  4027fc:	8d 74 26 00          	lea    0x0(%esi,%eiz,1),%esi
  402800:	8b 53 20             	mov    0x20(%ebx),%edx
  402803:	88 04 11             	mov    %al,(%ecx,%edx,1)
  402806:	8b 43 20             	mov    0x20(%ebx),%eax
  402809:	83 c0 01             	add    $0x1,%eax
  40280c:	89 43 20             	mov    %eax,0x20(%ebx)
  40280f:	39 ee                	cmp    %ebp,%esi
  402811:	74 37                	je     40284a <___pformat_wputchars+0xda>
  402813:	8b 53 04             	mov    0x4(%ebx),%edx
  402816:	83 c6 01             	add    $0x1,%esi
  402819:	f6 c6 40             	test   $0x40,%dh
  40281c:	75 08                	jne    402826 <___pformat_wputchars+0xb6>
  40281e:	8b 43 20             	mov    0x20(%ebx),%eax
  402821:	39 43 24             	cmp    %eax,0x24(%ebx)
  402824:	7e e3                	jle    402809 <___pformat_wputchars+0x99>
  402826:	0f be 46 ff          	movsbl -0x1(%esi),%eax
  40282a:	8b 0b                	mov    (%ebx),%ecx
  40282c:	80 e6 20             	and    $0x20,%dh
  40282f:	74 cf                	je     402800 <___pformat_wputchars+0x90>
  402831:	89 4c 24 04          	mov    %ecx,0x4(%esp)
  402835:	89 04 24             	mov    %eax,(%esp)
  402838:	e8 6b 58 00 00       	call   4080a8 <_fputc>
  40283d:	8b 43 20             	mov    0x20(%ebx),%eax
  402840:	83 c0 01             	add    $0x1,%eax
  402843:	89 43 20             	mov    %eax,0x20(%ebx)
  402846:	39 ee                	cmp    %ebp,%esi
  402848:	75 c9                	jne    402813 <___pformat_wputchars+0xa3>
  40284a:	83 6c 24 1c 01       	subl   $0x1,0x1c(%esp)
  40284f:	0f 85 7b ff ff ff    	jne    4027d0 <___pformat_wputchars+0x60>
  402855:	8b 43 08             	mov    0x8(%ebx),%eax
  402858:	8d 50 ff             	lea    -0x1(%eax),%edx
  40285b:	89 53 08             	mov    %edx,0x8(%ebx)
  40285e:	85 c0                	test   %eax,%eax
  402860:	7e 1f                	jle    402881 <___pformat_wputchars+0x111>
  402862:	8d b6 00 00 00 00    	lea    0x0(%esi),%esi
  402868:	89 da                	mov    %ebx,%edx
  40286a:	b8 20 00 00 00       	mov    $0x20,%eax
  40286f:	e8 9c fe ff ff       	call   402710 <___pformat_putc>
  402874:	8b 43 08             	mov    0x8(%ebx),%eax
  402877:	8d 50 ff             	lea    -0x1(%eax),%edx
  40287a:	89 53 08             	mov    %edx,0x8(%ebx)
  40287d:	85 c0                	test   %eax,%eax
  40287f:	7f e7                	jg     402868 <___pformat_wputchars+0xf8>
  402881:	83 c4 4c             	add    $0x4c,%esp
  402884:	5b                   	pop    %ebx
  402885:	5e                   	pop    %esi
  402886:	5f                   	pop    %edi
  402887:	5d                   	pop    %ebp
  402888:	c3                   	ret
  402889:	29 f0                	sub    %esi,%eax
  40288b:	89 43 08             	mov    %eax,0x8(%ebx)
  40288e:	f6 43 05 04          	testb  $0x4,0x5(%ebx)
  402892:	75 2a                	jne    4028be <___pformat_wputchars+0x14e>
  402894:	83 e8 01             	sub    $0x1,%eax
  402897:	89 43 08             	mov    %eax,0x8(%ebx)
  40289a:	8d b6 00 00 00 00    	lea    0x0(%esi),%esi
  4028a0:	89 da                	mov    %ebx,%edx
  4028a2:	b8 20 00 00 00       	mov    $0x20,%eax
  4028a7:	e8 64 fe ff ff       	call   402710 <___pformat_putc>
  4028ac:	8b 43 08             	mov    0x8(%ebx),%eax
  4028af:	8d 50 ff             	lea    -0x1(%eax),%edx
  4028b2:	89 53 08             	mov    %edx,0x8(%ebx)
  4028b5:	85 c0                	test   %eax,%eax
  4028b7:	75 e7                	jne    4028a0 <___pformat_wputchars+0x130>
  4028b9:	e9 fe fe ff ff       	jmp    4027bc <___pformat_wputchars+0x4c>
  4028be:	85 f6                	test   %esi,%esi
  4028c0:	0f 8f fe fe ff ff    	jg     4027c4 <___pformat_wputchars+0x54>
  4028c6:	83 e8 01             	sub    $0x1,%eax
  4028c9:	89 43 08             	mov    %eax,0x8(%ebx)
  4028cc:	eb 9a                	jmp    402868 <___pformat_wputchars+0xf8>
  4028ce:	c7 43 08 fe ff ff ff 	movl   $0xfffffffe,0x8(%ebx)
  4028d5:	eb aa                	jmp    402881 <___pformat_wputchars+0x111>
  4028d7:	8d b4 26 00 00 00 00 	lea    0x0(%esi,%eiz,1),%esi
  4028de:	66 90                	xchg   %ax,%ax

004028e0 <___pformat_putchars>:
  4028e0:	57                   	push   %edi
  4028e1:	89 d7                	mov    %edx,%edi
  4028e3:	56                   	push   %esi
  4028e4:	89 c6                	mov    %eax,%esi
  4028e6:	53                   	push   %ebx
  4028e7:	89 cb                	mov    %ecx,%ebx
  4028e9:	83 ec 10             	sub    $0x10,%esp
  4028ec:	8b 41 0c             	mov    0xc(%ecx),%eax
  4028ef:	39 c2                	cmp    %eax,%edx
  4028f1:	89 c2                	mov    %eax,%edx
  4028f3:	0f 4e d7             	cmovle %edi,%edx
  4028f6:	85 c0                	test   %eax,%eax
  4028f8:	8b 41 08             	mov    0x8(%ecx),%eax
  4028fb:	0f 49 fa             	cmovns %edx,%edi
  4028fe:	39 f8                	cmp    %edi,%eax
  402900:	0f 8f ba 00 00 00    	jg     4029c0 <___pformat_putchars+0xe0>
  402906:	c7 41 08 ff ff ff ff 	movl   $0xffffffff,0x8(%ecx)
  40290d:	85 ff                	test   %edi,%edi
  40290f:	0f 84 9c 00 00 00    	je     4029b1 <___pformat_putchars+0xd1>
  402915:	8b 43 04             	mov    0x4(%ebx),%eax
  402918:	8d 7c 3e ff          	lea    -0x1(%esi,%edi,1),%edi
  40291c:	eb 1b                	jmp    402939 <___pformat_putchars+0x59>
  40291e:	66 90                	xchg   %ax,%ax
  402920:	8b 43 20             	mov    0x20(%ebx),%eax
  402923:	88 14 01             	mov    %dl,(%ecx,%eax,1)
  402926:	8b 53 20             	mov    0x20(%ebx),%edx
  402929:	83 c2 01             	add    $0x1,%edx
  40292c:	89 53 20             	mov    %edx,0x20(%ebx)
  40292f:	39 f7                	cmp    %esi,%edi
  402931:	74 45                	je     402978 <___pformat_putchars+0x98>
  402933:	8b 43 04             	mov    0x4(%ebx),%eax
  402936:	83 c6 01             	add    $0x1,%esi
  402939:	f6 c4 40             	test   $0x40,%ah
  40293c:	75 08                	jne    402946 <___pformat_putchars+0x66>
  40293e:	8b 53 20             	mov    0x20(%ebx),%edx
  402941:	39 53 24             	cmp    %edx,0x24(%ebx)
  402944:	7e e3                	jle    402929 <___pformat_putchars+0x49>
  402946:	0f be 16             	movsbl (%esi),%edx
  402949:	8b 0b                	mov    (%ebx),%ecx
  40294b:	f6 c4 20             	test   $0x20,%ah
  40294e:	74 d0                	je     402920 <___pformat_putchars+0x40>
  402950:	89 14 24             	mov    %edx,(%esp)
  402953:	89 4c 24 04          	mov    %ecx,0x4(%esp)
  402957:	e8 4c 57 00 00       	call   4080a8 <_fputc>
  40295c:	8b 53 20             	mov    0x20(%ebx),%edx
  40295f:	eb c8                	jmp    402929 <___pformat_putchars+0x49>
  402961:	8d b4 26 00 00 00 00 	lea    0x0(%esi,%eiz,1),%esi
  402968:	8b 43 20             	mov    0x20(%ebx),%eax
  40296b:	c6 04 02 20          	movb   $0x20,(%edx,%eax,1)
  40296f:	8b 53 20             	mov    0x20(%ebx),%edx
  402972:	83 c2 01             	add    $0x1,%edx
  402975:	89 53 20             	mov    %edx,0x20(%ebx)
  402978:	8b 43 08             	mov    0x8(%ebx),%eax
  40297b:	8d 50 ff             	lea    -0x1(%eax),%edx
  40297e:	89 53 08             	mov    %edx,0x8(%ebx)
  402981:	85 c0                	test   %eax,%eax
  402983:	7e 33                	jle    4029b8 <___pformat_putchars+0xd8>
  402985:	8b 43 04             	mov    0x4(%ebx),%eax
  402988:	f6 c4 40             	test   $0x40,%ah
  40298b:	75 08                	jne    402995 <___pformat_putchars+0xb5>
  40298d:	8b 53 20             	mov    0x20(%ebx),%edx
  402990:	39 53 24             	cmp    %edx,0x24(%ebx)
  402993:	7e dd                	jle    402972 <___pformat_putchars+0x92>
  402995:	8b 13                	mov    (%ebx),%edx
  402997:	f6 c4 20             	test   $0x20,%ah
  40299a:	74 cc                	je     402968 <___pformat_putchars+0x88>
  40299c:	89 54 24 04          	mov    %edx,0x4(%esp)
  4029a0:	c7 04 24 20 00 00 00 	movl   $0x20,(%esp)
  4029a7:	e8 fc 56 00 00       	call   4080a8 <_fputc>
  4029ac:	8b 53 20             	mov    0x20(%ebx),%edx
  4029af:	eb c1                	jmp    402972 <___pformat_putchars+0x92>
  4029b1:	c7 43 08 fe ff ff ff 	movl   $0xfffffffe,0x8(%ebx)
  4029b8:	83 c4 10             	add    $0x10,%esp
  4029bb:	5b                   	pop    %ebx
  4029bc:	5e                   	pop    %esi
  4029bd:	5f                   	pop    %edi
  4029be:	c3                   	ret
  4029bf:	90                   	nop
  4029c0:	29 f8                	sub    %edi,%eax
  4029c2:	89 43 08             	mov    %eax,0x8(%ebx)
  4029c5:	89 c2                	mov    %eax,%edx
  4029c7:	8b 41 04             	mov    0x4(%ecx),%eax
  4029ca:	f6 c4 04             	test   $0x4,%ah
  4029cd:	75 31                	jne    402a00 <___pformat_putchars+0x120>
  4029cf:	8d 42 ff             	lea    -0x1(%edx),%eax
  4029d2:	89 41 08             	mov    %eax,0x8(%ecx)
  4029d5:	8d 76 00             	lea    0x0(%esi),%esi
  4029d8:	89 da                	mov    %ebx,%edx
  4029da:	b8 20 00 00 00       	mov    $0x20,%eax
  4029df:	e8 2c fd ff ff       	call   402710 <___pformat_putc>
  4029e4:	8b 43 08             	mov    0x8(%ebx),%eax
  4029e7:	8d 50 ff             	lea    -0x1(%eax),%edx
  4029ea:	89 53 08             	mov    %edx,0x8(%ebx)
  4029ed:	85 c0                	test   %eax,%eax
  4029ef:	75 e7                	jne    4029d8 <___pformat_putchars+0xf8>
  4029f1:	e9 17 ff ff ff       	jmp    40290d <___pformat_putchars+0x2d>
  4029f6:	8d b4 26 00 00 00 00 	lea    0x0(%esi,%eiz,1),%esi
  4029fd:	8d 76 00             	lea    0x0(%esi),%esi
  402a00:	85 ff                	test   %edi,%edi
  402a02:	0f 85 10 ff ff ff    	jne    402918 <___pformat_putchars+0x38>
  402a08:	83 ea 01             	sub    $0x1,%edx
  402a0b:	89 53 08             	mov    %edx,0x8(%ebx)
  402a0e:	e9 75 ff ff ff       	jmp    402988 <___pformat_putchars+0xa8>
  402a13:	8d b4 26 00 00 00 00 	lea    0x0(%esi,%eiz,1),%esi
  402a1a:	8d b6 00 00 00 00    	lea    0x0(%esi),%esi

00402a20 <___pformat_puts>:
  402a20:	56                   	push   %esi
  402a21:	89 d6                	mov    %edx,%esi
  402a23:	53                   	push   %ebx
  402a24:	89 c3                	mov    %eax,%ebx
  402a26:	83 ec 14             	sub    $0x14,%esp
  402a29:	85 c0                	test   %eax,%eax
  402a2b:	b8 e8 a2 40 00       	mov    $0x40a2e8,%eax
  402a30:	0f 44 d8             	cmove  %eax,%ebx
  402a33:	8b 42 0c             	mov    0xc(%edx),%eax
  402a36:	85 c0                	test   %eax,%eax
  402a38:	78 26                	js     402a60 <___pformat_puts+0x40>
  402a3a:	89 1c 24             	mov    %ebx,(%esp)
  402a3d:	89 44 24 04          	mov    %eax,0x4(%esp)
  402a41:	e8 ba 4e 00 00       	call   407900 <_strnlen>
  402a46:	83 c4 14             	add    $0x14,%esp
  402a49:	89 f1                	mov    %esi,%ecx
  402a4b:	89 c2                	mov    %eax,%edx
  402a4d:	89 d8                	mov    %ebx,%eax
  402a4f:	5b                   	pop    %ebx
  402a50:	5e                   	pop    %esi
  402a51:	e9 8a fe ff ff       	jmp    4028e0 <___pformat_putchars>
  402a56:	8d b4 26 00 00 00 00 	lea    0x0(%esi,%eiz,1),%esi
  402a5d:	8d 76 00             	lea    0x0(%esi),%esi
  402a60:	89 1c 24             	mov    %ebx,(%esp)
  402a63:	e8 88 56 00 00       	call   4080f0 <_strlen>
  402a68:	83 c4 14             	add    $0x14,%esp
  402a6b:	89 f1                	mov    %esi,%ecx
  402a6d:	89 c2                	mov    %eax,%edx
  402a6f:	89 d8                	mov    %ebx,%eax
  402a71:	5b                   	pop    %ebx
  402a72:	5e                   	pop    %esi
  402a73:	e9 68 fe ff ff       	jmp    4028e0 <___pformat_putchars>
  402a78:	8d b4 26 00 00 00 00 	lea    0x0(%esi,%eiz,1),%esi
  402a7f:	90                   	nop

00402a80 <___pformat_emit_inf_or_nan>:
  402a80:	55                   	push   %ebp
  402a81:	89 cd                	mov    %ecx,%ebp
  402a83:	57                   	push   %edi
  402a84:	89 d7                	mov    %edx,%edi
  402a86:	56                   	push   %esi
  402a87:	53                   	push   %ebx
  402a88:	83 ec 1c             	sub    $0x1c,%esp
  402a8b:	c7 41 0c ff ff ff ff 	movl   $0xffffffff,0xc(%ecx)
  402a92:	8b 59 04             	mov    0x4(%ecx),%ebx
  402a95:	85 c0                	test   %eax,%eax
  402a97:	74 3f                	je     402ad8 <___pformat_emit_inf_or_nan+0x58>
  402a99:	c6 44 24 0c 2d       	movb   $0x2d,0xc(%esp)
  402a9e:	8d 54 24 0d          	lea    0xd(%esp),%edx
  402aa2:	8d 74 24 0c          	lea    0xc(%esp),%esi
  402aa6:	83 e3 20             	and    $0x20,%ebx
  402aa9:	31 c9                	xor    %ecx,%ecx
  402aab:	0f b6 04 0f          	movzbl (%edi,%ecx,1),%eax
  402aaf:	83 e0 df             	and    $0xffffffdf,%eax
  402ab2:	09 d8                	or     %ebx,%eax
  402ab4:	88 04 0a             	mov    %al,(%edx,%ecx,1)
  402ab7:	83 c1 01             	add    $0x1,%ecx
  402aba:	83 f9 03             	cmp    $0x3,%ecx
  402abd:	75 ec                	jne    402aab <___pformat_emit_inf_or_nan+0x2b>
  402abf:	83 c2 03             	add    $0x3,%edx
  402ac2:	89 e9                	mov    %ebp,%ecx
  402ac4:	89 f0                	mov    %esi,%eax
  402ac6:	29 f2                	sub    %esi,%edx
  402ac8:	e8 13 fe ff ff       	call   4028e0 <___pformat_putchars>
  402acd:	83 c4 1c             	add    $0x1c,%esp
  402ad0:	5b                   	pop    %ebx
  402ad1:	5e                   	pop    %esi
  402ad2:	5f                   	pop    %edi
  402ad3:	5d                   	pop    %ebp
  402ad4:	c3                   	ret
  402ad5:	8d 76 00             	lea    0x0(%esi),%esi
  402ad8:	f6 c7 01             	test   $0x1,%bh
  402adb:	74 13                	je     402af0 <___pformat_emit_inf_or_nan+0x70>
  402add:	c6 44 24 0c 2b       	movb   $0x2b,0xc(%esp)
  402ae2:	8d 54 24 0d          	lea    0xd(%esp),%edx
  402ae6:	8d 74 24 0c          	lea    0xc(%esp),%esi
  402aea:	eb ba                	jmp    402aa6 <___pformat_emit_inf_or_nan+0x26>
  402aec:	8d 74 26 00          	lea    0x0(%esi,%eiz,1),%esi
  402af0:	f6 c3 40             	test   $0x40,%bl
  402af3:	74 13                	je     402b08 <___pformat_emit_inf_or_nan+0x88>
  402af5:	c6 44 24 0c 20       	movb   $0x20,0xc(%esp)
  402afa:	8d 54 24 0d          	lea    0xd(%esp),%edx
  402afe:	8d 74 24 0c          	lea    0xc(%esp),%esi
  402b02:	eb a2                	jmp    402aa6 <___pformat_emit_inf_or_nan+0x26>
  402b04:	8d 74 26 00          	lea    0x0(%esi,%eiz,1),%esi
  402b08:	8d 74 24 0c          	lea    0xc(%esp),%esi
  402b0c:	89 f2                	mov    %esi,%edx
  402b0e:	eb 96                	jmp    402aa6 <___pformat_emit_inf_or_nan+0x26>

00402b10 <___pformat_xint>:
  402b10:	55                   	push   %ebp
  402b11:	89 e5                	mov    %esp,%ebp
  402b13:	57                   	push   %edi
  402b14:	89 c7                	mov    %eax,%edi
  402b16:	56                   	push   %esi
  402b17:	53                   	push   %ebx
  402b18:	83 ec 5c             	sub    $0x5c,%esp
  402b1b:	89 45 c4             	mov    %eax,-0x3c(%ebp)
  402b1e:	8b 45 08             	mov    0x8(%ebp),%eax
  402b21:	8b 5d 18             	mov    0x18(%ebp),%ebx
  402b24:	89 45 d8             	mov    %eax,-0x28(%ebp)
  402b27:	8b 45 0c             	mov    0xc(%ebp),%eax
  402b2a:	8b 55 d8             	mov    -0x28(%ebp),%edx
  402b2d:	89 45 dc             	mov    %eax,-0x24(%ebp)
  402b30:	8b 45 10             	mov    0x10(%ebp),%eax
  402b33:	8b 4d dc             	mov    -0x24(%ebp),%ecx
  402b36:	89 55 b8             	mov    %edx,-0x48(%ebp)
  402b39:	89 45 e0             	mov    %eax,-0x20(%ebp)
  402b3c:	8b 45 14             	mov    0x14(%ebp),%eax
  402b3f:	89 4d bc             	mov    %ecx,-0x44(%ebp)
  402b42:	89 45 e4             	mov    %eax,-0x1c(%ebp)
  402b45:	83 ff 6f             	cmp    $0x6f,%edi
  402b48:	0f 84 52 03 00 00    	je     402ea0 <___pformat_xint+0x390>
  402b4e:	8b 43 0c             	mov    0xc(%ebx),%eax
  402b51:	31 c9                	xor    %ecx,%ecx
  402b53:	8b 7b 04             	mov    0x4(%ebx),%edi
  402b56:	85 c0                	test   %eax,%eax
  402b58:	89 45 c0             	mov    %eax,-0x40(%ebp)
  402b5b:	0f 49 c8             	cmovns %eax,%ecx
  402b5e:	83 c1 12             	add    $0x12,%ecx
  402b61:	f7 c7 00 10 00 00    	test   $0x1000,%edi
  402b67:	0f 85 d3 01 00 00    	jne    402d40 <___pformat_xint+0x230>
  402b6d:	8b 43 08             	mov    0x8(%ebx),%eax
  402b70:	39 c8                	cmp    %ecx,%eax
  402b72:	89 45 b4             	mov    %eax,-0x4c(%ebp)
  402b75:	0f 4d c8             	cmovge %eax,%ecx
  402b78:	8d 41 1b             	lea    0x1b(%ecx),%eax
  402b7b:	c1 e8 04             	shr    $0x4,%eax
  402b7e:	c1 e0 04             	shl    $0x4,%eax
  402b81:	e8 1a fa ff ff       	call   4025a0 <___chkstk_ms>
  402b86:	b9 0f 00 00 00       	mov    $0xf,%ecx
  402b8b:	29 c4                	sub    %eax,%esp
  402b8d:	c7 45 d4 04 00 00 00 	movl   $0x4,-0x2c(%ebp)
  402b94:	8d 44 24 1b          	lea    0x1b(%esp),%eax
  402b98:	83 e0 f0             	and    $0xfffffff0,%eax
  402b9b:	89 45 c8             	mov    %eax,-0x38(%ebp)
  402b9e:	8b 45 b8             	mov    -0x48(%ebp),%eax
  402ba1:	8b 55 bc             	mov    -0x44(%ebp),%edx
  402ba4:	09 d0                	or     %edx,%eax
  402ba6:	0f 84 f9 01 00 00    	je     402da5 <___pformat_xint+0x295>
  402bac:	0f b6 45 c4          	movzbl -0x3c(%ebp),%eax
  402bb0:	8b 75 c8             	mov    -0x38(%ebp),%esi
  402bb3:	88 4d d0             	mov    %cl,-0x30(%ebp)
  402bb6:	89 5d 18             	mov    %ebx,0x18(%ebp)
  402bb9:	83 e0 20             	and    $0x20,%eax
  402bbc:	89 7d b0             	mov    %edi,-0x50(%ebp)
  402bbf:	89 f3                	mov    %esi,%ebx
  402bc1:	8b 7d bc             	mov    -0x44(%ebp),%edi
  402bc4:	88 45 cc             	mov    %al,-0x34(%ebp)
  402bc7:	8b 75 b8             	mov    -0x48(%ebp),%esi
  402bca:	8d b6 00 00 00 00    	lea    0x0(%esi),%esi
  402bd0:	0f b6 45 d0          	movzbl -0x30(%ebp),%eax
  402bd4:	83 c3 01             	add    $0x1,%ebx
  402bd7:	21 f0                	and    %esi,%eax
  402bd9:	8d 48 30             	lea    0x30(%eax),%ecx
  402bdc:	83 c0 37             	add    $0x37,%eax
  402bdf:	0a 45 cc             	or     -0x34(%ebp),%al
  402be2:	89 ca                	mov    %ecx,%edx
  402be4:	80 f9 3a             	cmp    $0x3a,%cl
  402be7:	0f b6 4d d4          	movzbl -0x2c(%ebp),%ecx
  402beb:	0f 43 d0             	cmovae %eax,%edx
  402bee:	31 c0                	xor    %eax,%eax
  402bf0:	0f ad fe             	shrd   %cl,%edi,%esi
  402bf3:	d3 ef                	shr    %cl,%edi
  402bf5:	f6 c1 20             	test   $0x20,%cl
  402bf8:	88 53 ff             	mov    %dl,-0x1(%ebx)
  402bfb:	0f 45 f7             	cmovne %edi,%esi
  402bfe:	0f 45 f8             	cmovne %eax,%edi
  402c01:	89 f0                	mov    %esi,%eax
  402c03:	09 f8                	or     %edi,%eax
  402c05:	75 c9                	jne    402bd0 <___pformat_xint+0xc0>
  402c07:	89 de                	mov    %ebx,%esi
  402c09:	8b 7d b0             	mov    -0x50(%ebp),%edi
  402c0c:	8b 5d 18             	mov    0x18(%ebp),%ebx
  402c0f:	3b 75 c8             	cmp    -0x38(%ebp),%esi
  402c12:	0f 84 90 01 00 00    	je     402da8 <___pformat_xint+0x298>
  402c18:	8b 45 c0             	mov    -0x40(%ebp),%eax
  402c1b:	85 c0                	test   %eax,%eax
  402c1d:	7e 0f                	jle    402c2e <___pformat_xint+0x11e>
  402c1f:	89 f2                	mov    %esi,%edx
  402c21:	2b 55 c8             	sub    -0x38(%ebp),%edx
  402c24:	29 d0                	sub    %edx,%eax
  402c26:	85 c0                	test   %eax,%eax
  402c28:	0f 8f 96 01 00 00    	jg     402dc4 <___pformat_xint+0x2b4>
  402c2e:	83 7d c4 6f          	cmpl   $0x6f,-0x3c(%ebp)
  402c32:	0f 84 c0 02 00 00    	je     402ef8 <___pformat_xint+0x3e8>
  402c38:	89 f0                	mov    %esi,%eax
  402c3a:	2b 45 c8             	sub    -0x38(%ebp),%eax
  402c3d:	8b 7d b4             	mov    -0x4c(%ebp),%edi
  402c40:	39 f8                	cmp    %edi,%eax
  402c42:	0f 8c c0 01 00 00    	jl     402e08 <___pformat_xint+0x2f8>
  402c48:	83 7d c4 6f          	cmpl   $0x6f,-0x3c(%ebp)
  402c4c:	c7 43 08 ff ff ff ff 	movl   $0xffffffff,0x8(%ebx)
  402c53:	0f 84 17 04 00 00    	je     403070 <___pformat_xint+0x560>
  402c59:	b9 ff ff ff ff       	mov    $0xffffffff,%ecx
  402c5e:	f6 43 05 08          	testb  $0x8,0x5(%ebx)
  402c62:	0f 85 70 03 00 00    	jne    402fd8 <___pformat_xint+0x4c8>
  402c68:	8b 55 c8             	mov    -0x38(%ebp),%edx
  402c6b:	39 d6                	cmp    %edx,%esi
  402c6d:	0f 86 c5 00 00 00    	jbe    402d38 <___pformat_xint+0x228>
  402c73:	89 4d d0             	mov    %ecx,-0x30(%ebp)
  402c76:	8b 7b 04             	mov    0x4(%ebx),%edi
  402c79:	eb 1b                	jmp    402c96 <___pformat_xint+0x186>
  402c7b:	8d 74 26 00          	lea    0x0(%esi,%eiz,1),%esi
  402c7f:	90                   	nop
  402c80:	8b 7b 20             	mov    0x20(%ebx),%edi
  402c83:	88 04 39             	mov    %al,(%ecx,%edi,1)
  402c86:	8b 43 20             	mov    0x20(%ebx),%eax
  402c89:	83 c0 01             	add    $0x1,%eax
  402c8c:	89 43 20             	mov    %eax,0x20(%ebx)
  402c8f:	39 d6                	cmp    %edx,%esi
  402c91:	76 42                	jbe    402cd5 <___pformat_xint+0x1c5>
  402c93:	8b 7b 04             	mov    0x4(%ebx),%edi
  402c96:	83 ee 01             	sub    $0x1,%esi
  402c99:	f7 c7 00 40 00 00    	test   $0x4000,%edi
  402c9f:	75 08                	jne    402ca9 <___pformat_xint+0x199>
  402ca1:	8b 43 20             	mov    0x20(%ebx),%eax
  402ca4:	39 43 24             	cmp    %eax,0x24(%ebx)
  402ca7:	7e e0                	jle    402c89 <___pformat_xint+0x179>
  402ca9:	81 e7 00 20 00 00    	and    $0x2000,%edi
  402caf:	0f be 06             	movsbl (%esi),%eax
  402cb2:	8b 0b                	mov    (%ebx),%ecx
  402cb4:	74 ca                	je     402c80 <___pformat_xint+0x170>
  402cb6:	89 4c 24 04          	mov    %ecx,0x4(%esp)
  402cba:	89 04 24             	mov    %eax,(%esp)
  402cbd:	89 55 d4             	mov    %edx,-0x2c(%ebp)
  402cc0:	e8 e3 53 00 00       	call   4080a8 <_fputc>
  402cc5:	8b 43 20             	mov    0x20(%ebx),%eax
  402cc8:	8b 55 d4             	mov    -0x2c(%ebp),%edx
  402ccb:	83 c0 01             	add    $0x1,%eax
  402cce:	89 43 20             	mov    %eax,0x20(%ebx)
  402cd1:	39 d6                	cmp    %edx,%esi
  402cd3:	77 be                	ja     402c93 <___pformat_xint+0x183>
  402cd5:	8b 4d d0             	mov    -0x30(%ebp),%ecx
  402cd8:	8d 71 ff             	lea    -0x1(%ecx),%esi
  402cdb:	85 c9                	test   %ecx,%ecx
  402cdd:	7f 1e                	jg     402cfd <___pformat_xint+0x1ed>
  402cdf:	eb 57                	jmp    402d38 <___pformat_xint+0x228>
  402ce1:	8d b4 26 00 00 00 00 	lea    0x0(%esi,%eiz,1),%esi
  402ce8:	8b 53 20             	mov    0x20(%ebx),%edx
  402ceb:	c6 04 10 20          	movb   $0x20,(%eax,%edx,1)
  402cef:	8b 43 20             	mov    0x20(%ebx),%eax
  402cf2:	83 c0 01             	add    $0x1,%eax
  402cf5:	89 43 20             	mov    %eax,0x20(%ebx)
  402cf8:	83 ee 01             	sub    $0x1,%esi
  402cfb:	72 3b                	jb     402d38 <___pformat_xint+0x228>
  402cfd:	8b 7b 04             	mov    0x4(%ebx),%edi
  402d00:	f7 c7 00 40 00 00    	test   $0x4000,%edi
  402d06:	75 08                	jne    402d10 <___pformat_xint+0x200>
  402d08:	8b 43 20             	mov    0x20(%ebx),%eax
  402d0b:	39 43 24             	cmp    %eax,0x24(%ebx)
  402d0e:	7e e2                	jle    402cf2 <___pformat_xint+0x1e2>
  402d10:	81 e7 00 20 00 00    	and    $0x2000,%edi
  402d16:	8b 03                	mov    (%ebx),%eax
  402d18:	74 ce                	je     402ce8 <___pformat_xint+0x1d8>
  402d1a:	89 44 24 04          	mov    %eax,0x4(%esp)
  402d1e:	c7 04 24 20 00 00 00 	movl   $0x20,(%esp)
  402d25:	e8 7e 53 00 00       	call   4080a8 <_fputc>
  402d2a:	8b 43 20             	mov    0x20(%ebx),%eax
  402d2d:	83 c0 01             	add    $0x1,%eax
  402d30:	89 43 20             	mov    %eax,0x20(%ebx)
  402d33:	83 ee 01             	sub    $0x1,%esi
  402d36:	73 c5                	jae    402cfd <___pformat_xint+0x1ed>
  402d38:	8d 65 f4             	lea    -0xc(%ebp),%esp
  402d3b:	5b                   	pop    %ebx
  402d3c:	5e                   	pop    %esi
  402d3d:	5f                   	pop    %edi
  402d3e:	5d                   	pop    %ebp
  402d3f:	c3                   	ret
  402d40:	66 83 7b 1c 00       	cmpw   $0x0,0x1c(%ebx)
  402d45:	c7 45 d4 04 00 00 00 	movl   $0x4,-0x2c(%ebp)
  402d4c:	0f 84 4e 02 00 00    	je     402fa0 <___pformat_xint+0x490>
  402d52:	89 c8                	mov    %ecx,%eax
  402d54:	ba ab aa aa aa       	mov    $0xaaaaaaab,%edx
  402d59:	f7 e2                	mul    %edx
  402d5b:	8b 43 08             	mov    0x8(%ebx),%eax
  402d5e:	89 45 b4             	mov    %eax,-0x4c(%ebp)
  402d61:	d1 ea                	shr    %edx
  402d63:	01 ca                	add    %ecx,%edx
  402d65:	89 c1                	mov    %eax,%ecx
  402d67:	39 c2                	cmp    %eax,%edx
  402d69:	89 d0                	mov    %edx,%eax
  402d6b:	0f 4c c1             	cmovl  %ecx,%eax
  402d6e:	83 c0 1b             	add    $0x1b,%eax
  402d71:	c1 e8 04             	shr    $0x4,%eax
  402d74:	c1 e0 04             	shl    $0x4,%eax
  402d77:	e8 24 f8 ff ff       	call   4025a0 <___chkstk_ms>
  402d7c:	29 c4                	sub    %eax,%esp
  402d7e:	8d 44 24 1b          	lea    0x1b(%esp),%eax
  402d82:	83 e0 f0             	and    $0xfffffff0,%eax
  402d85:	83 7d c4 6f          	cmpl   $0x6f,-0x3c(%ebp)
  402d89:	89 45 c8             	mov    %eax,-0x38(%ebp)
  402d8c:	0f 84 59 01 00 00    	je     402eeb <___pformat_xint+0x3db>
  402d92:	b9 0f 00 00 00       	mov    $0xf,%ecx
  402d97:	8b 45 b8             	mov    -0x48(%ebp),%eax
  402d9a:	8b 55 bc             	mov    -0x44(%ebp),%edx
  402d9d:	09 d0                	or     %edx,%eax
  402d9f:	0f 85 07 fe ff ff    	jne    402bac <___pformat_xint+0x9c>
  402da5:	8b 75 c8             	mov    -0x38(%ebp),%esi
  402da8:	8b 4d c0             	mov    -0x40(%ebp),%ecx
  402dab:	89 f8                	mov    %edi,%eax
  402dad:	89 f2                	mov    %esi,%edx
  402daf:	2b 55 c8             	sub    -0x38(%ebp),%edx
  402db2:	80 e4 f7             	and    $0xf7,%ah
  402db5:	89 43 04             	mov    %eax,0x4(%ebx)
  402db8:	89 c8                	mov    %ecx,%eax
  402dba:	29 d0                	sub    %edx,%eax
  402dbc:	85 c9                	test   %ecx,%ecx
  402dbe:	0f 8e 46 01 00 00    	jle    402f0a <___pformat_xint+0x3fa>
  402dc4:	85 c0                	test   %eax,%eax
  402dc6:	bf 01 00 00 00       	mov    $0x1,%edi
  402dcb:	89 34 24             	mov    %esi,(%esp)
  402dce:	0f 4f f8             	cmovg  %eax,%edi
  402dd1:	c7 44 24 04 30 00 00 	movl   $0x30,0x4(%esp)
  402dd8:	00 
  402dd9:	89 7c 24 08          	mov    %edi,0x8(%esp)
  402ddd:	01 fe                	add    %edi,%esi
  402ddf:	e8 f4 52 00 00       	call   4080d8 <_memset>
  402de4:	3b 75 c8             	cmp    -0x38(%ebp),%esi
  402de7:	0f 85 4b fe ff ff    	jne    402c38 <___pformat_xint+0x128>
  402ded:	8d 56 01             	lea    0x1(%esi),%edx
  402df0:	8b 7d b4             	mov    -0x4c(%ebp),%edi
  402df3:	c6 06 30             	movb   $0x30,(%esi)
  402df6:	89 d0                	mov    %edx,%eax
  402df8:	2b 45 c8             	sub    -0x38(%ebp),%eax
  402dfb:	89 d6                	mov    %edx,%esi
  402dfd:	39 f8                	cmp    %edi,%eax
  402dff:	0f 8d 43 fe ff ff    	jge    402c48 <___pformat_xint+0x138>
  402e05:	8d 76 00             	lea    0x0(%esi),%esi
  402e08:	29 c7                	sub    %eax,%edi
  402e0a:	83 7d c4 6f          	cmpl   $0x6f,-0x3c(%ebp)
  402e0e:	89 7b 08             	mov    %edi,0x8(%ebx)
  402e11:	89 f9                	mov    %edi,%ecx
  402e13:	8b 7b 04             	mov    0x4(%ebx),%edi
  402e16:	0f 84 0c 01 00 00    	je     402f28 <___pformat_xint+0x418>
  402e1c:	f7 c7 00 08 00 00    	test   $0x800,%edi
  402e22:	0f 84 28 01 00 00    	je     402f50 <___pformat_xint+0x440>
  402e28:	83 e9 02             	sub    $0x2,%ecx
  402e2b:	85 c9                	test   %ecx,%ecx
  402e2d:	7e 0b                	jle    402e3a <___pformat_xint+0x32a>
  402e2f:	8b 55 c0             	mov    -0x40(%ebp),%edx
  402e32:	85 d2                	test   %edx,%edx
  402e34:	0f 88 0e 02 00 00    	js     403048 <___pformat_xint+0x538>
  402e3a:	0f b6 45 c4          	movzbl -0x3c(%ebp),%eax
  402e3e:	c6 46 01 30          	movb   $0x30,0x1(%esi)
  402e42:	83 c6 02             	add    $0x2,%esi
  402e45:	88 46 fe             	mov    %al,-0x2(%esi)
  402e48:	85 c9                	test   %ecx,%ecx
  402e4a:	0f 8e 18 fe ff ff    	jle    402c68 <___pformat_xint+0x158>
  402e50:	8b 7b 04             	mov    0x4(%ebx),%edi
  402e53:	f7 c7 00 04 00 00    	test   $0x400,%edi
  402e59:	0f 85 08 01 00 00    	jne    402f67 <___pformat_xint+0x457>
  402e5f:	8d 79 ff             	lea    -0x1(%ecx),%edi
  402e62:	8d b6 00 00 00 00    	lea    0x0(%esi),%esi
  402e68:	b8 20 00 00 00       	mov    $0x20,%eax
  402e6d:	89 da                	mov    %ebx,%edx
  402e6f:	e8 9c f8 ff ff       	call   402710 <___pformat_putc>
  402e74:	89 f8                	mov    %edi,%eax
  402e76:	83 ef 01             	sub    $0x1,%edi
  402e79:	85 c0                	test   %eax,%eax
  402e7b:	7f eb                	jg     402e68 <___pformat_xint+0x358>
  402e7d:	b9 ff ff ff ff       	mov    $0xffffffff,%ecx
  402e82:	3b 75 c8             	cmp    -0x38(%ebp),%esi
  402e85:	0f 86 4d fe ff ff    	jbe    402cd8 <___pformat_xint+0x1c8>
  402e8b:	8b 7b 04             	mov    0x4(%ebx),%edi
  402e8e:	8b 55 c8             	mov    -0x38(%ebp),%edx
  402e91:	89 4d d0             	mov    %ecx,-0x30(%ebp)
  402e94:	e9 fd fd ff ff       	jmp    402c96 <___pformat_xint+0x186>
  402e99:	8d b4 26 00 00 00 00 	lea    0x0(%esi,%eiz,1),%esi
  402ea0:	8b 43 0c             	mov    0xc(%ebx),%eax
  402ea3:	31 c9                	xor    %ecx,%ecx
  402ea5:	8b 7b 04             	mov    0x4(%ebx),%edi
  402ea8:	85 c0                	test   %eax,%eax
  402eaa:	89 45 c0             	mov    %eax,-0x40(%ebp)
  402ead:	0f 49 c8             	cmovns %eax,%ecx
  402eb0:	83 c1 18             	add    $0x18,%ecx
  402eb3:	f7 c7 00 10 00 00    	test   $0x1000,%edi
  402eb9:	0f 85 c1 00 00 00    	jne    402f80 <___pformat_xint+0x470>
  402ebf:	8b 43 08             	mov    0x8(%ebx),%eax
  402ec2:	39 c8                	cmp    %ecx,%eax
  402ec4:	89 45 b4             	mov    %eax,-0x4c(%ebp)
  402ec7:	0f 4d c8             	cmovge %eax,%ecx
  402eca:	8d 41 1b             	lea    0x1b(%ecx),%eax
  402ecd:	c1 e8 04             	shr    $0x4,%eax
  402ed0:	c1 e0 04             	shl    $0x4,%eax
  402ed3:	e8 c8 f6 ff ff       	call   4025a0 <___chkstk_ms>
  402ed8:	29 c4                	sub    %eax,%esp
  402eda:	c7 45 d4 03 00 00 00 	movl   $0x3,-0x2c(%ebp)
  402ee1:	8d 44 24 1b          	lea    0x1b(%esp),%eax
  402ee5:	83 e0 f0             	and    $0xfffffff0,%eax
  402ee8:	89 45 c8             	mov    %eax,-0x38(%ebp)
  402eeb:	b9 07 00 00 00       	mov    $0x7,%ecx
  402ef0:	e9 a9 fc ff ff       	jmp    402b9e <___pformat_xint+0x8e>
  402ef5:	8d 76 00             	lea    0x0(%esi),%esi
  402ef8:	81 e7 00 08 00 00    	and    $0x800,%edi
  402efe:	0f 84 34 fd ff ff    	je     402c38 <___pformat_xint+0x128>
  402f04:	c6 06 30             	movb   $0x30,(%esi)
  402f07:	83 c6 01             	add    $0x1,%esi
  402f0a:	3b 75 c8             	cmp    -0x38(%ebp),%esi
  402f0d:	0f 85 25 fd ff ff    	jne    402c38 <___pformat_xint+0x128>
  402f13:	8b 55 c0             	mov    -0x40(%ebp),%edx
  402f16:	31 c0                	xor    %eax,%eax
  402f18:	85 d2                	test   %edx,%edx
  402f1a:	0f 84 1d fd ff ff    	je     402c3d <___pformat_xint+0x12d>
  402f20:	e9 c8 fe ff ff       	jmp    402ded <___pformat_xint+0x2dd>
  402f25:	8d 76 00             	lea    0x0(%esi),%esi
  402f28:	8b 45 c0             	mov    -0x40(%ebp),%eax
  402f2b:	85 c0                	test   %eax,%eax
  402f2d:	0f 88 b8 00 00 00    	js     402feb <___pformat_xint+0x4db>
  402f33:	f7 c7 00 04 00 00    	test   $0x400,%edi
  402f39:	0f 84 20 ff ff ff    	je     402e5f <___pformat_xint+0x34f>
  402f3f:	3b 75 c8             	cmp    -0x38(%ebp),%esi
  402f42:	77 28                	ja     402f6c <___pformat_xint+0x45c>
  402f44:	8d 71 ff             	lea    -0x1(%ecx),%esi
  402f47:	e9 b4 fd ff ff       	jmp    402d00 <___pformat_xint+0x1f0>
  402f4c:	8d 74 26 00          	lea    0x0(%esi,%eiz,1),%esi
  402f50:	8b 45 c0             	mov    -0x40(%ebp),%eax
  402f53:	85 c0                	test   %eax,%eax
  402f55:	0f 88 ed 00 00 00    	js     403048 <___pformat_xint+0x538>
  402f5b:	f7 c7 00 04 00 00    	test   $0x400,%edi
  402f61:	0f 84 f8 fe ff ff    	je     402e5f <___pformat_xint+0x34f>
  402f67:	39 75 c8             	cmp    %esi,-0x38(%ebp)
  402f6a:	73 d8                	jae    402f44 <___pformat_xint+0x434>
  402f6c:	89 4d d0             	mov    %ecx,-0x30(%ebp)
  402f6f:	8b 55 c8             	mov    -0x38(%ebp),%edx
  402f72:	e9 1f fd ff ff       	jmp    402c96 <___pformat_xint+0x186>
  402f77:	8d b4 26 00 00 00 00 	lea    0x0(%esi,%eiz,1),%esi
  402f7e:	66 90                	xchg   %ax,%ax
  402f80:	66 83 7b 1c 00       	cmpw   $0x0,0x1c(%ebx)
  402f85:	0f 84 01 01 00 00    	je     40308c <___pformat_xint+0x57c>
  402f8b:	c7 45 d4 03 00 00 00 	movl   $0x3,-0x2c(%ebp)
  402f92:	e9 bb fd ff ff       	jmp    402d52 <___pformat_xint+0x242>
  402f97:	8d b4 26 00 00 00 00 	lea    0x0(%esi,%eiz,1),%esi
  402f9e:	66 90                	xchg   %ax,%ax
  402fa0:	8b 53 08             	mov    0x8(%ebx),%edx
  402fa3:	89 c8                	mov    %ecx,%eax
  402fa5:	39 d1                	cmp    %edx,%ecx
  402fa7:	89 55 b4             	mov    %edx,-0x4c(%ebp)
  402faa:	0f 4c c2             	cmovl  %edx,%eax
  402fad:	83 c0 1b             	add    $0x1b,%eax
  402fb0:	c1 e8 04             	shr    $0x4,%eax
  402fb3:	c1 e0 04             	shl    $0x4,%eax
  402fb6:	e8 e5 f5 ff ff       	call   4025a0 <___chkstk_ms>
  402fbb:	b9 0f 00 00 00       	mov    $0xf,%ecx
  402fc0:	29 c4                	sub    %eax,%esp
  402fc2:	8d 44 24 1b          	lea    0x1b(%esp),%eax
  402fc6:	83 e0 f0             	and    $0xfffffff0,%eax
  402fc9:	89 45 c8             	mov    %eax,-0x38(%ebp)
  402fcc:	e9 c6 fd ff ff       	jmp    402d97 <___pformat_xint+0x287>
  402fd1:	8d b4 26 00 00 00 00 	lea    0x0(%esi,%eiz,1),%esi
  402fd8:	0f b6 45 c4          	movzbl -0x3c(%ebp),%eax
  402fdc:	c6 46 01 30          	movb   $0x30,0x1(%esi)
  402fe0:	83 c6 02             	add    $0x2,%esi
  402fe3:	88 46 fe             	mov    %al,-0x2(%esi)
  402fe6:	e9 7d fc ff ff       	jmp    402c68 <___pformat_xint+0x158>
  402feb:	89 f8                	mov    %edi,%eax
  402fed:	25 00 06 00 00       	and    $0x600,%eax
  402ff2:	3d 00 02 00 00       	cmp    $0x200,%eax
  402ff7:	0f 85 36 ff ff ff    	jne    402f33 <___pformat_xint+0x423>
  402ffd:	89 4c 24 08          	mov    %ecx,0x8(%esp)
  403001:	8d 41 ff             	lea    -0x1(%ecx),%eax
  403004:	89 34 24             	mov    %esi,(%esp)
  403007:	c7 44 24 04 30 00 00 	movl   $0x30,0x4(%esp)
  40300e:	00 
  40300f:	89 4d d4             	mov    %ecx,-0x2c(%ebp)
  403012:	89 4d cc             	mov    %ecx,-0x34(%ebp)
  403015:	89 45 d0             	mov    %eax,-0x30(%ebp)
  403018:	e8 bb 50 00 00       	call   4080d8 <_memset>
  40301d:	8b 4d cc             	mov    -0x34(%ebp),%ecx
  403020:	8b 45 d0             	mov    -0x30(%ebp),%eax
  403023:	03 75 d4             	add    -0x2c(%ebp),%esi
  403026:	29 c8                	sub    %ecx,%eax
  403028:	83 7d c4 6f          	cmpl   $0x6f,-0x3c(%ebp)
  40302c:	89 c1                	mov    %eax,%ecx
  40302e:	0f 84 14 fe ff ff    	je     402e48 <___pformat_xint+0x338>
  403034:	81 e7 00 08 00 00    	and    $0x800,%edi
  40303a:	0f 84 08 fe ff ff    	je     402e48 <___pformat_xint+0x338>
  403040:	e9 f5 fd ff ff       	jmp    402e3a <___pformat_xint+0x32a>
  403045:	8d 76 00             	lea    0x0(%esi),%esi
  403048:	89 f8                	mov    %edi,%eax
  40304a:	25 00 06 00 00       	and    $0x600,%eax
  40304f:	3d 00 02 00 00       	cmp    $0x200,%eax
  403054:	74 a7                	je     402ffd <___pformat_xint+0x4ed>
  403056:	f7 c7 00 08 00 00    	test   $0x800,%edi
  40305c:	0f 85 d8 fd ff ff    	jne    402e3a <___pformat_xint+0x32a>
  403062:	e9 f4 fe ff ff       	jmp    402f5b <___pformat_xint+0x44b>
  403067:	8d b4 26 00 00 00 00 	lea    0x0(%esi,%eiz,1),%esi
  40306e:	66 90                	xchg   %ax,%ax
  403070:	3b 75 c8             	cmp    -0x38(%ebp),%esi
  403073:	0f 86 bf fc ff ff    	jbe    402d38 <___pformat_xint+0x228>
  403079:	b9 ff ff ff ff       	mov    $0xffffffff,%ecx
  40307e:	8b 7b 04             	mov    0x4(%ebx),%edi
  403081:	8b 55 c8             	mov    -0x38(%ebp),%edx
  403084:	89 4d d0             	mov    %ecx,-0x30(%ebp)
  403087:	e9 0a fc ff ff       	jmp    402c96 <___pformat_xint+0x186>
  40308c:	8b 73 08             	mov    0x8(%ebx),%esi
  40308f:	89 c8                	mov    %ecx,%eax
  403091:	39 f1                	cmp    %esi,%ecx
  403093:	89 75 b4             	mov    %esi,-0x4c(%ebp)
  403096:	0f 4c c6             	cmovl  %esi,%eax
  403099:	83 c0 1b             	add    $0x1b,%eax
  40309c:	e9 2c fe ff ff       	jmp    402ecd <___pformat_xint+0x3bd>
  4030a1:	8d b4 26 00 00 00 00 	lea    0x0(%esi,%eiz,1),%esi
  4030a8:	8d b4 26 00 00 00 00 	lea    0x0(%esi,%eiz,1),%esi
  4030af:	90                   	nop

004030b0 <___pformat_int>:
  4030b0:	55                   	push   %ebp
  4030b1:	31 c9                	xor    %ecx,%ecx
  4030b3:	89 e5                	mov    %esp,%ebp
  4030b5:	57                   	push   %edi
  4030b6:	56                   	push   %esi
  4030b7:	53                   	push   %ebx
  4030b8:	83 ec 4c             	sub    $0x4c,%esp
  4030bb:	8b 45 08             	mov    0x8(%ebp),%eax
  4030be:	8b 75 18             	mov    0x18(%ebp),%esi
  4030c1:	89 45 d8             	mov    %eax,-0x28(%ebp)
  4030c4:	8b 45 0c             	mov    0xc(%ebp),%eax
  4030c7:	8b 5e 04             	mov    0x4(%esi),%ebx
  4030ca:	89 45 dc             	mov    %eax,-0x24(%ebp)
  4030cd:	8b 45 10             	mov    0x10(%ebp),%eax
  4030d0:	8b 55 dc             	mov    -0x24(%ebp),%edx
  4030d3:	89 45 e0             	mov    %eax,-0x20(%ebp)
  4030d6:	8b 45 14             	mov    0x14(%ebp),%eax
  4030d9:	89 55 d4             	mov    %edx,-0x2c(%ebp)
  4030dc:	89 45 e4             	mov    %eax,-0x1c(%ebp)
  4030df:	8b 45 d8             	mov    -0x28(%ebp),%eax
  4030e2:	89 45 d0             	mov    %eax,-0x30(%ebp)
  4030e5:	8b 46 0c             	mov    0xc(%esi),%eax
  4030e8:	85 c0                	test   %eax,%eax
  4030ea:	89 45 b8             	mov    %eax,-0x48(%ebp)
  4030ed:	0f 49 c8             	cmovns %eax,%ecx
  4030f0:	83 c1 17             	add    $0x17,%ecx
  4030f3:	f6 c7 10             	test   $0x10,%bh
  4030f6:	74 0b                	je     403103 <___pformat_int+0x53>
  4030f8:	66 83 7e 1c 00       	cmpw   $0x0,0x1c(%esi)
  4030fd:	0f 85 9d 02 00 00    	jne    4033a0 <___pformat_int+0x2f0>
  403103:	8b 46 08             	mov    0x8(%esi),%eax
  403106:	39 c8                	cmp    %ecx,%eax
  403108:	89 45 bc             	mov    %eax,-0x44(%ebp)
  40310b:	0f 4d c8             	cmovge %eax,%ecx
  40310e:	8d 41 1b             	lea    0x1b(%ecx),%eax
  403111:	c1 e8 04             	shr    $0x4,%eax
  403114:	c1 e0 04             	shl    $0x4,%eax
  403117:	e8 84 f4 ff ff       	call   4025a0 <___chkstk_ms>
  40311c:	29 c4                	sub    %eax,%esp
  40311e:	8d 44 24 1b          	lea    0x1b(%esp),%eax
  403122:	83 e0 f0             	and    $0xfffffff0,%eax
  403125:	89 45 c0             	mov    %eax,-0x40(%ebp)
  403128:	f6 c3 80             	test   $0x80,%bl
  40312b:	74 14                	je     403141 <___pformat_int+0x91>
  40312d:	8b 55 d4             	mov    -0x2c(%ebp),%edx
  403130:	8b 45 d0             	mov    -0x30(%ebp),%eax
  403133:	85 d2                	test   %edx,%edx
  403135:	0f 88 95 02 00 00    	js     4033d0 <___pformat_int+0x320>
  40313b:	80 e3 7f             	and    $0x7f,%bl
  40313e:	89 5e 04             	mov    %ebx,0x4(%esi)
  403141:	8b 45 d0             	mov    -0x30(%ebp),%eax
  403144:	8b 55 d4             	mov    -0x2c(%ebp),%edx
  403147:	89 c1                	mov    %eax,%ecx
  403149:	89 d0                	mov    %edx,%eax
  40314b:	89 d3                	mov    %edx,%ebx
  40314d:	09 c8                	or     %ecx,%eax
  40314f:	0f 84 5b 03 00 00    	je     4034b0 <___pformat_int+0x400>
  403155:	8b 45 c0             	mov    -0x40(%ebp),%eax
  403158:	89 75 18             	mov    %esi,0x18(%ebp)
  40315b:	89 df                	mov    %ebx,%edi
  40315d:	89 ce                	mov    %ecx,%esi
  40315f:	89 45 c4             	mov    %eax,-0x3c(%ebp)
  403162:	8d b6 00 00 00 00    	lea    0x0(%esi),%esi
  403168:	89 f1                	mov    %esi,%ecx
  40316a:	b8 cd cc cc cc       	mov    $0xcccccccd,%eax
  40316f:	01 f9                	add    %edi,%ecx
  403171:	83 d1 00             	adc    $0x0,%ecx
  403174:	31 db                	xor    %ebx,%ebx
  403176:	f7 e1                	mul    %ecx
  403178:	89 5d d4             	mov    %ebx,-0x2c(%ebp)
  40317b:	89 d0                	mov    %edx,%eax
  40317d:	83 e2 fc             	and    $0xfffffffc,%edx
  403180:	c1 e8 02             	shr    $0x2,%eax
  403183:	01 c2                	add    %eax,%edx
  403185:	89 f0                	mov    %esi,%eax
  403187:	29 d1                	sub    %edx,%ecx
  403189:	89 fa                	mov    %edi,%edx
  40318b:	29 c8                	sub    %ecx,%eax
  40318d:	89 4d d0             	mov    %ecx,-0x30(%ebp)
  403190:	0f b6 4d d0          	movzbl -0x30(%ebp),%ecx
  403194:	19 da                	sbb    %ebx,%edx
  403196:	89 45 c8             	mov    %eax,-0x38(%ebp)
  403199:	b8 cd cc cc cc       	mov    $0xcccccccd,%eax
  40319e:	69 da cd cc cc cc    	imul   $0xcccccccd,%edx,%ebx
  4031a4:	69 55 c8 cc cc cc cc 	imul   $0xcccccccc,-0x38(%ebp),%edx
  4031ab:	01 d3                	add    %edx,%ebx
  4031ad:	f7 65 c8             	mull   -0x38(%ebp)
  4031b0:	01 da                	add    %ebx,%edx
  4031b2:	89 c3                	mov    %eax,%ebx
  4031b4:	83 e3 01             	and    $0x1,%ebx
  4031b7:	0f ac d0 01          	shrd   $0x1,%edx,%eax
  4031bb:	89 45 c8             	mov    %eax,-0x38(%ebp)
  4031be:	8d 1c 9b             	lea    (%ebx,%ebx,4),%ebx
  4031c1:	8b 45 c4             	mov    -0x3c(%ebp),%eax
  4031c4:	d1 ea                	shr    %edx
  4031c6:	8d 5c 0b 30          	lea    0x30(%ebx,%ecx,1),%ebx
  4031ca:	89 55 cc             	mov    %edx,-0x34(%ebp)
  4031cd:	88 18                	mov    %bl,(%eax)
  4031cf:	8d 50 01             	lea    0x1(%eax),%edx
  4031d2:	b8 09 00 00 00       	mov    $0x9,%eax
  4031d7:	39 f0                	cmp    %esi,%eax
  4031d9:	b8 00 00 00 00       	mov    $0x0,%eax
  4031de:	19 f8                	sbb    %edi,%eax
  4031e0:	73 4e                	jae    403230 <___pformat_int+0x180>
  4031e2:	8b 7d c0             	mov    -0x40(%ebp),%edi
  4031e5:	39 d7                	cmp    %edx,%edi
  4031e7:	74 2f                	je     403218 <___pformat_int+0x168>
  4031e9:	8b 45 18             	mov    0x18(%ebp),%eax
  4031ec:	f6 40 05 10          	testb  $0x10,0x5(%eax)
  4031f0:	74 26                	je     403218 <___pformat_int+0x168>
  4031f2:	66 83 78 1c 00       	cmpw   $0x0,0x1c(%eax)
  4031f7:	74 1f                	je     403218 <___pformat_int+0x168>
  4031f9:	89 d0                	mov    %edx,%eax
  4031fb:	29 f8                	sub    %edi,%eax
  4031fd:	25 03 00 00 80       	and    $0x80000003,%eax
  403202:	83 f8 03             	cmp    $0x3,%eax
  403205:	75 11                	jne    403218 <___pformat_int+0x168>
  403207:	8b 45 c4             	mov    -0x3c(%ebp),%eax
  40320a:	c6 40 01 2c          	movb   $0x2c,0x1(%eax)
  40320e:	8d 50 02             	lea    0x2(%eax),%edx
  403211:	8d b4 26 00 00 00 00 	lea    0x0(%esi,%eiz,1),%esi
  403218:	8b 75 c8             	mov    -0x38(%ebp),%esi
  40321b:	8b 7d cc             	mov    -0x34(%ebp),%edi
  40321e:	89 55 c4             	mov    %edx,-0x3c(%ebp)
  403221:	e9 42 ff ff ff       	jmp    403168 <___pformat_int+0xb8>
  403226:	8d b4 26 00 00 00 00 	lea    0x0(%esi,%eiz,1),%esi
  40322d:	8d 76 00             	lea    0x0(%esi),%esi
  403230:	8b 45 b8             	mov    -0x48(%ebp),%eax
  403233:	8b 75 18             	mov    0x18(%ebp),%esi
  403236:	89 d7                	mov    %edx,%edi
  403238:	85 c0                	test   %eax,%eax
  40323a:	0f 8e e0 01 00 00    	jle    403420 <___pformat_int+0x370>
  403240:	2b 55 c0             	sub    -0x40(%ebp),%edx
  403243:	29 d0                	sub    %edx,%eax
  403245:	85 c0                	test   %eax,%eax
  403247:	7e 20                	jle    403269 <___pformat_int+0x1b9>
  403249:	85 c0                	test   %eax,%eax
  40324b:	bb 01 00 00 00       	mov    $0x1,%ebx
  403250:	89 3c 24             	mov    %edi,(%esp)
  403253:	0f 4f d8             	cmovg  %eax,%ebx
  403256:	c7 44 24 04 30 00 00 	movl   $0x30,0x4(%esp)
  40325d:	00 
  40325e:	89 5c 24 08          	mov    %ebx,0x8(%esp)
  403262:	01 df                	add    %ebx,%edi
  403264:	e8 6f 4e 00 00       	call   4080d8 <_memset>
  403269:	39 7d c0             	cmp    %edi,-0x40(%ebp)
  40326c:	0f 84 de 01 00 00    	je     403450 <___pformat_int+0x3a0>
  403272:	8b 4d bc             	mov    -0x44(%ebp),%ecx
  403275:	85 c9                	test   %ecx,%ecx
  403277:	0f 8e 94 01 00 00    	jle    403411 <___pformat_int+0x361>
  40327d:	89 f8                	mov    %edi,%eax
  40327f:	2b 45 c0             	sub    -0x40(%ebp),%eax
  403282:	29 45 bc             	sub    %eax,-0x44(%ebp)
  403285:	8b 45 bc             	mov    -0x44(%ebp),%eax
  403288:	8b 5e 04             	mov    0x4(%esi),%ebx
  40328b:	89 46 08             	mov    %eax,0x8(%esi)
  40328e:	85 c0                	test   %eax,%eax
  403290:	7e 2e                	jle    4032c0 <___pformat_int+0x210>
  403292:	f7 c3 c0 01 00 00    	test   $0x1c0,%ebx
  403298:	74 09                	je     4032a3 <___pformat_int+0x1f3>
  40329a:	8b 45 bc             	mov    -0x44(%ebp),%eax
  40329d:	83 e8 01             	sub    $0x1,%eax
  4032a0:	89 46 08             	mov    %eax,0x8(%esi)
  4032a3:	8b 55 b8             	mov    -0x48(%ebp),%edx
  4032a6:	85 d2                	test   %edx,%edx
  4032a8:	0f 88 b2 01 00 00    	js     403460 <___pformat_int+0x3b0>
  4032ae:	f6 c7 04             	test   $0x4,%bh
  4032b1:	0f 84 29 01 00 00    	je     4033e0 <___pformat_int+0x330>
  4032b7:	8d b4 26 00 00 00 00 	lea    0x0(%esi,%eiz,1),%esi
  4032be:	66 90                	xchg   %ax,%ax
  4032c0:	f6 c3 80             	test   $0x80,%bl
  4032c3:	0f 84 c7 00 00 00    	je     403390 <___pformat_int+0x2e0>
  4032c9:	c6 07 2d             	movb   $0x2d,(%edi)
  4032cc:	8d 57 01             	lea    0x1(%edi),%edx
  4032cf:	8b 45 c0             	mov    -0x40(%ebp),%eax
  4032d2:	39 c2                	cmp    %eax,%edx
  4032d4:	76 53                	jbe    403329 <___pformat_int+0x279>
  4032d6:	89 d7                	mov    %edx,%edi
  4032d8:	89 da                	mov    %ebx,%edx
  4032da:	89 c3                	mov    %eax,%ebx
  4032dc:	eb 18                	jmp    4032f6 <___pformat_int+0x246>
  4032de:	66 90                	xchg   %ax,%ax
  4032e0:	8b 56 20             	mov    0x20(%esi),%edx
  4032e3:	88 04 11             	mov    %al,(%ecx,%edx,1)
  4032e6:	8b 46 20             	mov    0x20(%esi),%eax
  4032e9:	83 c0 01             	add    $0x1,%eax
  4032ec:	89 46 20             	mov    %eax,0x20(%esi)
  4032ef:	39 fb                	cmp    %edi,%ebx
  4032f1:	74 36                	je     403329 <___pformat_int+0x279>
  4032f3:	8b 56 04             	mov    0x4(%esi),%edx
  4032f6:	83 ef 01             	sub    $0x1,%edi
  4032f9:	f6 c6 40             	test   $0x40,%dh
  4032fc:	75 08                	jne    403306 <___pformat_int+0x256>
  4032fe:	8b 46 20             	mov    0x20(%esi),%eax
  403301:	39 46 24             	cmp    %eax,0x24(%esi)
  403304:	7e e3                	jle    4032e9 <___pformat_int+0x239>
  403306:	0f be 07             	movsbl (%edi),%eax
  403309:	8b 0e                	mov    (%esi),%ecx
  40330b:	80 e6 20             	and    $0x20,%dh
  40330e:	74 d0                	je     4032e0 <___pformat_int+0x230>
  403310:	89 4c 24 04          	mov    %ecx,0x4(%esp)
  403314:	89 04 24             	mov    %eax,(%esp)
  403317:	e8 8c 4d 00 00       	call   4080a8 <_fputc>
  40331c:	8b 46 20             	mov    0x20(%esi),%eax
  40331f:	83 c0 01             	add    $0x1,%eax
  403322:	89 46 20             	mov    %eax,0x20(%esi)
  403325:	39 fb                	cmp    %edi,%ebx
  403327:	75 ca                	jne    4032f3 <___pformat_int+0x243>
  403329:	8b 46 08             	mov    0x8(%esi),%eax
  40332c:	eb 15                	jmp    403343 <___pformat_int+0x293>
  40332e:	66 90                	xchg   %ax,%ax
  403330:	8b 56 20             	mov    0x20(%esi),%edx
  403333:	c6 04 10 20          	movb   $0x20,(%eax,%edx,1)
  403337:	8b 56 20             	mov    0x20(%esi),%edx
  40333a:	8b 46 08             	mov    0x8(%esi),%eax
  40333d:	83 c2 01             	add    $0x1,%edx
  403340:	89 56 20             	mov    %edx,0x20(%esi)
  403343:	89 c2                	mov    %eax,%edx
  403345:	83 e8 01             	sub    $0x1,%eax
  403348:	89 46 08             	mov    %eax,0x8(%esi)
  40334b:	85 d2                	test   %edx,%edx
  40334d:	7e 31                	jle    403380 <___pformat_int+0x2d0>
  40334f:	8b 4e 04             	mov    0x4(%esi),%ecx
  403352:	f6 c5 40             	test   $0x40,%ch
  403355:	75 08                	jne    40335f <___pformat_int+0x2af>
  403357:	8b 56 20             	mov    0x20(%esi),%edx
  40335a:	39 56 24             	cmp    %edx,0x24(%esi)
  40335d:	7e de                	jle    40333d <___pformat_int+0x28d>
  40335f:	8b 06                	mov    (%esi),%eax
  403361:	80 e5 20             	and    $0x20,%ch
  403364:	74 ca                	je     403330 <___pformat_int+0x280>
  403366:	89 44 24 04          	mov    %eax,0x4(%esp)
  40336a:	c7 04 24 20 00 00 00 	movl   $0x20,(%esp)
  403371:	e8 32 4d 00 00       	call   4080a8 <_fputc>
  403376:	8b 56 20             	mov    0x20(%esi),%edx
  403379:	8b 46 08             	mov    0x8(%esi),%eax
  40337c:	eb bf                	jmp    40333d <___pformat_int+0x28d>
  40337e:	66 90                	xchg   %ax,%ax
  403380:	8d 65 f4             	lea    -0xc(%ebp),%esp
  403383:	5b                   	pop    %ebx
  403384:	5e                   	pop    %esi
  403385:	5f                   	pop    %edi
  403386:	5d                   	pop    %ebp
  403387:	c3                   	ret
  403388:	8d b4 26 00 00 00 00 	lea    0x0(%esi,%eiz,1),%esi
  40338f:	90                   	nop
  403390:	f6 c7 01             	test   $0x1,%bh
  403393:	74 23                	je     4033b8 <___pformat_int+0x308>
  403395:	c6 07 2b             	movb   $0x2b,(%edi)
  403398:	8d 57 01             	lea    0x1(%edi),%edx
  40339b:	e9 2f ff ff ff       	jmp    4032cf <___pformat_int+0x21f>
  4033a0:	89 c8                	mov    %ecx,%eax
  4033a2:	ba ab aa aa aa       	mov    $0xaaaaaaab,%edx
  4033a7:	f7 e2                	mul    %edx
  4033a9:	d1 ea                	shr    %edx
  4033ab:	01 d1                	add    %edx,%ecx
  4033ad:	e9 51 fd ff ff       	jmp    403103 <___pformat_int+0x53>
  4033b2:	8d b6 00 00 00 00    	lea    0x0(%esi),%esi
  4033b8:	89 fa                	mov    %edi,%edx
  4033ba:	f6 c3 40             	test   $0x40,%bl
  4033bd:	0f 84 0c ff ff ff    	je     4032cf <___pformat_int+0x21f>
  4033c3:	c6 07 20             	movb   $0x20,(%edi)
  4033c6:	83 c2 01             	add    $0x1,%edx
  4033c9:	e9 01 ff ff ff       	jmp    4032cf <___pformat_int+0x21f>
  4033ce:	66 90                	xchg   %ax,%ax
  4033d0:	f7 d8                	neg    %eax
  4033d2:	83 d2 00             	adc    $0x0,%edx
  4033d5:	89 c1                	mov    %eax,%ecx
  4033d7:	f7 da                	neg    %edx
  4033d9:	89 d3                	mov    %edx,%ebx
  4033db:	e9 75 fd ff ff       	jmp    403155 <___pformat_int+0xa5>
  4033e0:	8b 46 08             	mov    0x8(%esi),%eax
  4033e3:	8d 50 ff             	lea    -0x1(%eax),%edx
  4033e6:	89 56 08             	mov    %edx,0x8(%esi)
  4033e9:	85 c0                	test   %eax,%eax
  4033eb:	0f 8e cf fe ff ff    	jle    4032c0 <___pformat_int+0x210>
  4033f1:	8d b4 26 00 00 00 00 	lea    0x0(%esi,%eiz,1),%esi
  4033f8:	89 f2                	mov    %esi,%edx
  4033fa:	b8 20 00 00 00       	mov    $0x20,%eax
  4033ff:	e8 0c f3 ff ff       	call   402710 <___pformat_putc>
  403404:	8b 46 08             	mov    0x8(%esi),%eax
  403407:	8d 50 ff             	lea    -0x1(%eax),%edx
  40340a:	89 56 08             	mov    %edx,0x8(%esi)
  40340d:	85 c0                	test   %eax,%eax
  40340f:	7f e7                	jg     4033f8 <___pformat_int+0x348>
  403411:	8b 5e 04             	mov    0x4(%esi),%ebx
  403414:	e9 a7 fe ff ff       	jmp    4032c0 <___pformat_int+0x210>
  403419:	8d b4 26 00 00 00 00 	lea    0x0(%esi,%eiz,1),%esi
  403420:	39 55 c0             	cmp    %edx,-0x40(%ebp)
  403423:	0f 85 49 fe ff ff    	jne    403272 <___pformat_int+0x1c2>
  403429:	8b 5d b8             	mov    -0x48(%ebp),%ebx
  40342c:	85 db                	test   %ebx,%ebx
  40342e:	75 20                	jne    403450 <___pformat_int+0x3a0>
  403430:	8b 45 bc             	mov    -0x44(%ebp),%eax
  403433:	8b 5e 04             	mov    0x4(%esi),%ebx
  403436:	85 c0                	test   %eax,%eax
  403438:	0f 8e 82 fe ff ff    	jle    4032c0 <___pformat_int+0x210>
  40343e:	f7 c3 c0 01 00 00    	test   $0x1c0,%ebx
  403444:	0f 85 50 fe ff ff    	jne    40329a <___pformat_int+0x1ea>
  40344a:	e9 5f fe ff ff       	jmp    4032ae <___pformat_int+0x1fe>
  40344f:	90                   	nop
  403450:	c6 07 30             	movb   $0x30,(%edi)
  403453:	83 c7 01             	add    $0x1,%edi
  403456:	e9 17 fe ff ff       	jmp    403272 <___pformat_int+0x1c2>
  40345b:	8d 74 26 00          	lea    0x0(%esi,%eiz,1),%esi
  40345f:	90                   	nop
  403460:	89 d8                	mov    %ebx,%eax
  403462:	25 00 06 00 00       	and    $0x600,%eax
  403467:	3d 00 02 00 00       	cmp    $0x200,%eax
  40346c:	0f 85 3c fe ff ff    	jne    4032ae <___pformat_int+0x1fe>
  403472:	8b 56 08             	mov    0x8(%esi),%edx
  403475:	8d 42 ff             	lea    -0x1(%edx),%eax
  403478:	89 46 08             	mov    %eax,0x8(%esi)
  40347b:	85 d2                	test   %edx,%edx
  40347d:	0f 8e 3d fe ff ff    	jle    4032c0 <___pformat_int+0x210>
  403483:	89 54 24 08          	mov    %edx,0x8(%esp)
  403487:	89 3c 24             	mov    %edi,(%esp)
  40348a:	c7 44 24 04 30 00 00 	movl   $0x30,0x4(%esp)
  403491:	00 
  403492:	89 55 d0             	mov    %edx,-0x30(%ebp)
  403495:	e8 3e 4c 00 00       	call   4080d8 <_memset>
  40349a:	8b 55 d0             	mov    -0x30(%ebp),%edx
  40349d:	c7 46 08 ff ff ff ff 	movl   $0xffffffff,0x8(%esi)
  4034a4:	01 d7                	add    %edx,%edi
  4034a6:	e9 15 fe ff ff       	jmp    4032c0 <___pformat_int+0x210>
  4034ab:	8d 74 26 00          	lea    0x0(%esi,%eiz,1),%esi
  4034af:	90                   	nop
  4034b0:	8b 5d b8             	mov    -0x48(%ebp),%ebx
  4034b3:	8b 7d c0             	mov    -0x40(%ebp),%edi
  4034b6:	89 d8                	mov    %ebx,%eax
  4034b8:	85 db                	test   %ebx,%ebx
  4034ba:	0f 8f 89 fd ff ff    	jg     403249 <___pformat_int+0x199>
  4034c0:	e9 64 ff ff ff       	jmp    403429 <___pformat_int+0x379>
  4034c5:	8d b4 26 00 00 00 00 	lea    0x0(%esi,%eiz,1),%esi
  4034cc:	8d 74 26 00          	lea    0x0(%esi,%eiz,1),%esi

004034d0 <___pformat_emit_radix_point>:
  4034d0:	55                   	push   %ebp
  4034d1:	89 e5                	mov    %esp,%ebp
  4034d3:	57                   	push   %edi
  4034d4:	56                   	push   %esi
  4034d5:	53                   	push   %ebx
  4034d6:	89 c3                	mov    %eax,%ebx
  4034d8:	83 ec 3c             	sub    $0x3c,%esp
  4034db:	83 78 10 fd          	cmpl   $0xfffffffd,0x10(%eax)
  4034df:	0f 84 cb 00 00 00    	je     4035b0 <___pformat_emit_radix_point+0xe0>
  4034e5:	0f b7 50 14          	movzwl 0x14(%eax),%edx
  4034e9:	66 85 d2             	test   %dx,%dx
  4034ec:	0f 84 a6 00 00 00    	je     403598 <___pformat_emit_radix_point+0xc8>
  4034f2:	8b 43 10             	mov    0x10(%ebx),%eax
  4034f5:	89 65 d4             	mov    %esp,-0x2c(%ebp)
  4034f8:	83 c0 0f             	add    $0xf,%eax
  4034fb:	c1 e8 04             	shr    $0x4,%eax
  4034fe:	c1 e0 04             	shl    $0x4,%eax
  403501:	e8 9a f0 ff ff       	call   4025a0 <___chkstk_ms>
  403506:	29 c4                	sub    %eax,%esp
  403508:	8d 45 e0             	lea    -0x20(%ebp),%eax
  40350b:	c7 45 e0 00 00 00 00 	movl   $0x0,-0x20(%ebp)
  403512:	8d 74 24 10          	lea    0x10(%esp),%esi
  403516:	c7 45 e4 00 00 00 00 	movl   $0x0,-0x1c(%ebp)
  40351d:	89 44 24 08          	mov    %eax,0x8(%esp)
  403521:	89 54 24 04          	mov    %edx,0x4(%esp)
  403525:	89 34 24             	mov    %esi,(%esp)
  403528:	e8 e3 45 00 00       	call   407b10 <_wcrtomb>
  40352d:	85 c0                	test   %eax,%eax
  40352f:	0f 8e cb 00 00 00    	jle    403600 <___pformat_emit_radix_point+0x130>
  403535:	8d 3c 06             	lea    (%esi,%eax,1),%edi
  403538:	eb 19                	jmp    403553 <___pformat_emit_radix_point+0x83>
  40353a:	8d b6 00 00 00 00    	lea    0x0(%esi),%esi
  403540:	8b 43 20             	mov    0x20(%ebx),%eax
  403543:	88 14 01             	mov    %dl,(%ecx,%eax,1)
  403546:	8b 53 20             	mov    0x20(%ebx),%edx
  403549:	83 c2 01             	add    $0x1,%edx
  40354c:	89 53 20             	mov    %edx,0x20(%ebx)
  40354f:	39 fe                	cmp    %edi,%esi
  403551:	74 37                	je     40358a <___pformat_emit_radix_point+0xba>
  403553:	8b 43 04             	mov    0x4(%ebx),%eax
  403556:	83 c6 01             	add    $0x1,%esi
  403559:	f6 c4 40             	test   $0x40,%ah
  40355c:	75 08                	jne    403566 <___pformat_emit_radix_point+0x96>
  40355e:	8b 53 20             	mov    0x20(%ebx),%edx
  403561:	39 53 24             	cmp    %edx,0x24(%ebx)
  403564:	7e e3                	jle    403549 <___pformat_emit_radix_point+0x79>
  403566:	0f be 56 ff          	movsbl -0x1(%esi),%edx
  40356a:	8b 0b                	mov    (%ebx),%ecx
  40356c:	f6 c4 20             	test   $0x20,%ah
  40356f:	74 cf                	je     403540 <___pformat_emit_radix_point+0x70>
  403571:	89 14 24             	mov    %edx,(%esp)
  403574:	89 4c 24 04          	mov    %ecx,0x4(%esp)
  403578:	e8 2b 4b 00 00       	call   4080a8 <_fputc>
  40357d:	8b 53 20             	mov    0x20(%ebx),%edx
  403580:	83 c2 01             	add    $0x1,%edx
  403583:	89 53 20             	mov    %edx,0x20(%ebx)
  403586:	39 fe                	cmp    %edi,%esi
  403588:	75 c9                	jne    403553 <___pformat_emit_radix_point+0x83>
  40358a:	8b 65 d4             	mov    -0x2c(%ebp),%esp
  40358d:	8d 65 f4             	lea    -0xc(%ebp),%esp
  403590:	5b                   	pop    %ebx
  403591:	5e                   	pop    %esi
  403592:	5f                   	pop    %edi
  403593:	5d                   	pop    %ebp
  403594:	c3                   	ret
  403595:	8d 76 00             	lea    0x0(%esi),%esi
  403598:	89 da                	mov    %ebx,%edx
  40359a:	b8 2e 00 00 00       	mov    $0x2e,%eax
  40359f:	e8 6c f1 ff ff       	call   402710 <___pformat_putc>
  4035a4:	8d 65 f4             	lea    -0xc(%ebp),%esp
  4035a7:	5b                   	pop    %ebx
  4035a8:	5e                   	pop    %esi
  4035a9:	5f                   	pop    %edi
  4035aa:	5d                   	pop    %ebp
  4035ab:	c3                   	ret
  4035ac:	8d 74 26 00          	lea    0x0(%esi,%eiz,1),%esi
  4035b0:	c7 45 e0 00 00 00 00 	movl   $0x0,-0x20(%ebp)
  4035b7:	8d 75 e0             	lea    -0x20(%ebp),%esi
  4035ba:	c7 45 e4 00 00 00 00 	movl   $0x0,-0x1c(%ebp)
  4035c1:	e8 fa 4a 00 00       	call   4080c0 <_localeconv>
  4035c6:	89 74 24 0c          	mov    %esi,0xc(%esp)
  4035ca:	c7 44 24 08 10 00 00 	movl   $0x10,0x8(%esp)
  4035d1:	00 
  4035d2:	8b 00                	mov    (%eax),%eax
  4035d4:	89 44 24 04          	mov    %eax,0x4(%esp)
  4035d8:	8d 45 de             	lea    -0x22(%ebp),%eax
  4035db:	89 04 24             	mov    %eax,(%esp)
  4035de:	e8 3d 48 00 00       	call   407e20 <_mbrtowc>
  4035e3:	85 c0                	test   %eax,%eax
  4035e5:	7e 31                	jle    403618 <___pformat_emit_radix_point+0x148>
  4035e7:	0f b7 55 de          	movzwl -0x22(%ebp),%edx
  4035eb:	66 89 53 14          	mov    %dx,0x14(%ebx)
  4035ef:	89 43 10             	mov    %eax,0x10(%ebx)
  4035f2:	e9 f2 fe ff ff       	jmp    4034e9 <___pformat_emit_radix_point+0x19>
  4035f7:	8d b4 26 00 00 00 00 	lea    0x0(%esi,%eiz,1),%esi
  4035fe:	66 90                	xchg   %ax,%ax
  403600:	89 da                	mov    %ebx,%edx
  403602:	b8 2e 00 00 00       	mov    $0x2e,%eax
  403607:	e8 04 f1 ff ff       	call   402710 <___pformat_putc>
  40360c:	8b 65 d4             	mov    -0x2c(%ebp),%esp
  40360f:	e9 79 ff ff ff       	jmp    40358d <___pformat_emit_radix_point+0xbd>
  403614:	8d 74 26 00          	lea    0x0(%esi,%eiz,1),%esi
  403618:	0f b7 53 14          	movzwl 0x14(%ebx),%edx
  40361c:	eb d1                	jmp    4035ef <___pformat_emit_radix_point+0x11f>
  40361e:	66 90                	xchg   %ax,%ax

00403620 <___pformat_emit_float>:
  403620:	55                   	push   %ebp
  403621:	89 c5                	mov    %eax,%ebp
  403623:	57                   	push   %edi
  403624:	89 d7                	mov    %edx,%edi
  403626:	56                   	push   %esi
  403627:	89 ce                	mov    %ecx,%esi
  403629:	53                   	push   %ebx
  40362a:	83 ec 0c             	sub    $0xc,%esp
  40362d:	8b 5c 24 20          	mov    0x20(%esp),%ebx
  403631:	8b 43 08             	mov    0x8(%ebx),%eax
  403634:	85 c9                	test   %ecx,%ecx
  403636:	0f 8e b4 01 00 00    	jle    4037f0 <___pformat_emit_float+0x1d0>
  40363c:	39 c8                	cmp    %ecx,%eax
  40363e:	0f 8d 3c 01 00 00    	jge    403780 <___pformat_emit_float+0x160>
  403644:	c7 43 08 ff ff ff ff 	movl   $0xffffffff,0x8(%ebx)
  40364b:	f6 43 05 10          	testb  $0x10,0x5(%ebx)
  40364f:	74 78                	je     4036c9 <___pformat_emit_float+0xa9>
  403651:	66 83 7b 1c 00       	cmpw   $0x0,0x1c(%ebx)
  403656:	74 71                	je     4036c9 <___pformat_emit_float+0xa9>
  403658:	b9 ff ff ff ff       	mov    $0xffffffff,%ecx
  40365d:	8d 46 02             	lea    0x2(%esi),%eax
  403660:	ba ab aa aa aa       	mov    $0xaaaaaaab,%edx
  403665:	f7 e2                	mul    %edx
  403667:	89 c8                	mov    %ecx,%eax
  403669:	d1 ea                	shr    %edx
  40366b:	8d 4a ff             	lea    -0x1(%edx),%ecx
  40366e:	29 c1                	sub    %eax,%ecx
  403670:	83 fa 01             	cmp    $0x1,%edx
  403673:	0f 85 f7 00 00 00    	jne    403770 <___pformat_emit_float+0x150>
  403679:	8d b4 26 00 00 00 00 	lea    0x0(%esi,%eiz,1),%esi
  403680:	85 c0                	test   %eax,%eax
  403682:	7e 45                	jle    4036c9 <___pformat_emit_float+0xa9>
  403684:	85 ed                	test   %ebp,%ebp
  403686:	0f 85 e4 01 00 00    	jne    403870 <___pformat_emit_float+0x250>
  40368c:	8b 53 04             	mov    0x4(%ebx),%edx
  40368f:	f7 c2 c0 01 00 00    	test   $0x1c0,%edx
  403695:	0f 84 d5 02 00 00    	je     403970 <___pformat_emit_float+0x350>
  40369b:	83 e8 01             	sub    $0x1,%eax
  40369e:	89 43 08             	mov    %eax,0x8(%ebx)
  4036a1:	74 31                	je     4036d4 <___pformat_emit_float+0xb4>
  4036a3:	f6 c6 06             	test   $0x6,%dh
  4036a6:	75 2c                	jne    4036d4 <___pformat_emit_float+0xb4>
  4036a8:	83 e8 01             	sub    $0x1,%eax
  4036ab:	89 43 08             	mov    %eax,0x8(%ebx)
  4036ae:	66 90                	xchg   %ax,%ax
  4036b0:	89 da                	mov    %ebx,%edx
  4036b2:	b8 20 00 00 00       	mov    $0x20,%eax
  4036b7:	e8 54 f0 ff ff       	call   402710 <___pformat_putc>
  4036bc:	8b 43 08             	mov    0x8(%ebx),%eax
  4036bf:	8d 50 ff             	lea    -0x1(%eax),%edx
  4036c2:	89 53 08             	mov    %edx,0x8(%ebx)
  4036c5:	85 c0                	test   %eax,%eax
  4036c7:	7f e7                	jg     4036b0 <___pformat_emit_float+0x90>
  4036c9:	85 ed                	test   %ebp,%ebp
  4036cb:	0f 85 40 01 00 00    	jne    403811 <___pformat_emit_float+0x1f1>
  4036d1:	8b 53 04             	mov    0x4(%ebx),%edx
  4036d4:	f6 c6 01             	test   $0x1,%dh
  4036d7:	0f 85 53 02 00 00    	jne    403930 <___pformat_emit_float+0x310>
  4036dd:	83 e2 40             	and    $0x40,%edx
  4036e0:	0f 85 c2 02 00 00    	jne    4039a8 <___pformat_emit_float+0x388>
  4036e6:	8b 43 08             	mov    0x8(%ebx),%eax
  4036e9:	85 c0                	test   %eax,%eax
  4036eb:	7e 15                	jle    403702 <___pformat_emit_float+0xe2>
  4036ed:	8b 53 04             	mov    0x4(%ebx),%edx
  4036f0:	81 e2 00 06 00 00    	and    $0x600,%edx
  4036f6:	81 fa 00 02 00 00    	cmp    $0x200,%edx
  4036fc:	0f 84 46 02 00 00    	je     403948 <___pformat_emit_float+0x328>
  403702:	8d 6b 1c             	lea    0x1c(%ebx),%ebp
  403705:	85 f6                	test   %esi,%esi
  403707:	0f 8e 93 01 00 00    	jle    4038a0 <___pformat_emit_float+0x280>
  40370d:	8d 76 00             	lea    0x0(%esi),%esi
  403710:	0f b6 17             	movzbl (%edi),%edx
  403713:	b8 30 00 00 00       	mov    $0x30,%eax
  403718:	84 d2                	test   %dl,%dl
  40371a:	74 06                	je     403722 <___pformat_emit_float+0x102>
  40371c:	83 c7 01             	add    $0x1,%edi
  40371f:	0f be c2             	movsbl %dl,%eax
  403722:	89 da                	mov    %ebx,%edx
  403724:	e8 e7 ef ff ff       	call   402710 <___pformat_putc>
  403729:	83 ee 01             	sub    $0x1,%esi
  40372c:	0f 84 9e 00 00 00    	je     4037d0 <___pformat_emit_float+0x1b0>
  403732:	f6 43 05 10          	testb  $0x10,0x5(%ebx)
  403736:	74 d8                	je     403710 <___pformat_emit_float+0xf0>
  403738:	66 83 7b 1c 00       	cmpw   $0x0,0x1c(%ebx)
  40373d:	74 d1                	je     403710 <___pformat_emit_float+0xf0>
  40373f:	69 c6 ab aa aa aa    	imul   $0xaaaaaaab,%esi,%eax
  403745:	3d 55 55 55 55       	cmp    $0x55555555,%eax
  40374a:	77 c4                	ja     403710 <___pformat_emit_float+0xf0>
  40374c:	89 d9                	mov    %ebx,%ecx
  40374e:	ba 01 00 00 00       	mov    $0x1,%edx
  403753:	89 e8                	mov    %ebp,%eax
  403755:	e8 16 f0 ff ff       	call   402770 <___pformat_wputchars>
  40375a:	eb b4                	jmp    403710 <___pformat_emit_float+0xf0>
  40375c:	8d 74 26 00          	lea    0x0(%esi,%eiz,1),%esi
  403760:	83 e8 01             	sub    $0x1,%eax
  403763:	89 ca                	mov    %ecx,%edx
  403765:	01 c2                	add    %eax,%edx
  403767:	89 43 08             	mov    %eax,0x8(%ebx)
  40376a:	0f 84 10 ff ff ff    	je     403680 <___pformat_emit_float+0x60>
  403770:	85 c0                	test   %eax,%eax
  403772:	7f ec                	jg     403760 <___pformat_emit_float+0x140>
  403774:	e9 50 ff ff ff       	jmp    4036c9 <___pformat_emit_float+0xa9>
  403779:	8d b4 26 00 00 00 00 	lea    0x0(%esi,%eiz,1),%esi
  403780:	29 c8                	sub    %ecx,%eax
  403782:	89 43 08             	mov    %eax,0x8(%ebx)
  403785:	0f 88 b9 fe ff ff    	js     403644 <___pformat_emit_float+0x24>
  40378b:	8b 53 0c             	mov    0xc(%ebx),%edx
  40378e:	39 d0                	cmp    %edx,%eax
  403790:	0f 8e ae fe ff ff    	jle    403644 <___pformat_emit_float+0x24>
  403796:	29 d0                	sub    %edx,%eax
  403798:	89 43 08             	mov    %eax,0x8(%ebx)
  40379b:	85 d2                	test   %edx,%edx
  40379d:	0f 8e 5d 01 00 00    	jle    403900 <___pformat_emit_float+0x2e0>
  4037a3:	83 e8 01             	sub    $0x1,%eax
  4037a6:	89 43 08             	mov    %eax,0x8(%ebx)
  4037a9:	85 f6                	test   %esi,%esi
  4037ab:	0f 8e cf fe ff ff    	jle    403680 <___pformat_emit_float+0x60>
  4037b1:	f6 43 05 10          	testb  $0x10,0x5(%ebx)
  4037b5:	0f 84 c5 fe ff ff    	je     403680 <___pformat_emit_float+0x60>
  4037bb:	66 83 7b 1c 00       	cmpw   $0x0,0x1c(%ebx)
  4037c0:	0f 84 ba fe ff ff    	je     403680 <___pformat_emit_float+0x60>
  4037c6:	89 c1                	mov    %eax,%ecx
  4037c8:	e9 90 fe ff ff       	jmp    40365d <___pformat_emit_float+0x3d>
  4037cd:	8d 76 00             	lea    0x0(%esi),%esi
  4037d0:	8b 43 0c             	mov    0xc(%ebx),%eax
  4037d3:	85 c0                	test   %eax,%eax
  4037d5:	7f 51                	jg     403828 <___pformat_emit_float+0x208>
  4037d7:	f6 43 05 08          	testb  $0x8,0x5(%ebx)
  4037db:	75 4b                	jne    403828 <___pformat_emit_float+0x208>
  4037dd:	83 e8 01             	sub    $0x1,%eax
  4037e0:	89 43 0c             	mov    %eax,0xc(%ebx)
  4037e3:	83 c4 0c             	add    $0xc,%esp
  4037e6:	5b                   	pop    %ebx
  4037e7:	5e                   	pop    %esi
  4037e8:	5f                   	pop    %edi
  4037e9:	5d                   	pop    %ebp
  4037ea:	c3                   	ret
  4037eb:	8d 74 26 00          	lea    0x0(%esi,%eiz,1),%esi
  4037ef:	90                   	nop
  4037f0:	85 c0                	test   %eax,%eax
  4037f2:	0f 8e 98 01 00 00    	jle    403990 <___pformat_emit_float+0x370>
  4037f8:	83 e8 01             	sub    $0x1,%eax
  4037fb:	8b 53 0c             	mov    0xc(%ebx),%edx
  4037fe:	39 d0                	cmp    %edx,%eax
  403800:	7f 94                	jg     403796 <___pformat_emit_float+0x176>
  403802:	c7 43 08 ff ff ff ff 	movl   $0xffffffff,0x8(%ebx)
  403809:	85 ed                	test   %ebp,%ebp
  40380b:	0f 84 c0 fe ff ff    	je     4036d1 <___pformat_emit_float+0xb1>
  403811:	89 da                	mov    %ebx,%edx
  403813:	b8 2d 00 00 00       	mov    $0x2d,%eax
  403818:	e8 f3 ee ff ff       	call   402710 <___pformat_putc>
  40381d:	e9 c4 fe ff ff       	jmp    4036e6 <___pformat_emit_float+0xc6>
  403822:	8d b6 00 00 00 00    	lea    0x0(%esi),%esi
  403828:	89 d8                	mov    %ebx,%eax
  40382a:	e8 a1 fc ff ff       	call   4034d0 <___pformat_emit_radix_point>
  40382f:	eb 20                	jmp    403851 <___pformat_emit_float+0x231>
  403831:	8d b4 26 00 00 00 00 	lea    0x0(%esi,%eiz,1),%esi
  403838:	0f b6 17             	movzbl (%edi),%edx
  40383b:	b8 30 00 00 00       	mov    $0x30,%eax
  403840:	84 d2                	test   %dl,%dl
  403842:	74 06                	je     40384a <___pformat_emit_float+0x22a>
  403844:	83 c7 01             	add    $0x1,%edi
  403847:	0f be c2             	movsbl %dl,%eax
  40384a:	89 da                	mov    %ebx,%edx
  40384c:	e8 bf ee ff ff       	call   402710 <___pformat_putc>
  403851:	8b 43 0c             	mov    0xc(%ebx),%eax
  403854:	8d 50 ff             	lea    -0x1(%eax),%edx
  403857:	89 53 0c             	mov    %edx,0xc(%ebx)
  40385a:	85 c0                	test   %eax,%eax
  40385c:	7f da                	jg     403838 <___pformat_emit_float+0x218>
  40385e:	83 c4 0c             	add    $0xc,%esp
  403861:	5b                   	pop    %ebx
  403862:	5e                   	pop    %esi
  403863:	5f                   	pop    %edi
  403864:	5d                   	pop    %ebp
  403865:	c3                   	ret
  403866:	8d b4 26 00 00 00 00 	lea    0x0(%esi,%eiz,1),%esi
  40386d:	8d 76 00             	lea    0x0(%esi),%esi
  403870:	83 e8 01             	sub    $0x1,%eax
  403873:	89 43 08             	mov    %eax,0x8(%ebx)
  403876:	74 99                	je     403811 <___pformat_emit_float+0x1f1>
  403878:	f7 43 04 00 06 00 00 	testl  $0x600,0x4(%ebx)
  40387f:	0f 84 23 fe ff ff    	je     4036a8 <___pformat_emit_float+0x88>
  403885:	89 da                	mov    %ebx,%edx
  403887:	b8 2d 00 00 00       	mov    $0x2d,%eax
  40388c:	e8 7f ee ff ff       	call   402710 <___pformat_putc>
  403891:	e9 50 fe ff ff       	jmp    4036e6 <___pformat_emit_float+0xc6>
  403896:	8d b4 26 00 00 00 00 	lea    0x0(%esi,%eiz,1),%esi
  40389d:	8d 76 00             	lea    0x0(%esi),%esi
  4038a0:	b8 30 00 00 00       	mov    $0x30,%eax
  4038a5:	89 da                	mov    %ebx,%edx
  4038a7:	e8 64 ee ff ff       	call   402710 <___pformat_putc>
  4038ac:	8b 43 0c             	mov    0xc(%ebx),%eax
  4038af:	85 c0                	test   %eax,%eax
  4038b1:	7f 15                	jg     4038c8 <___pformat_emit_float+0x2a8>
  4038b3:	f6 43 05 08          	testb  $0x8,0x5(%ebx)
  4038b7:	75 0f                	jne    4038c8 <___pformat_emit_float+0x2a8>
  4038b9:	85 f6                	test   %esi,%esi
  4038bb:	75 1d                	jne    4038da <___pformat_emit_float+0x2ba>
  4038bd:	e9 1b ff ff ff       	jmp    4037dd <___pformat_emit_float+0x1bd>
  4038c2:	8d b6 00 00 00 00    	lea    0x0(%esi),%esi
  4038c8:	89 d8                	mov    %ebx,%eax
  4038ca:	e8 01 fc ff ff       	call   4034d0 <___pformat_emit_radix_point>
  4038cf:	85 f6                	test   %esi,%esi
  4038d1:	0f 84 7a ff ff ff    	je     403851 <___pformat_emit_float+0x231>
  4038d7:	8b 43 0c             	mov    0xc(%ebx),%eax
  4038da:	01 f0                	add    %esi,%eax
  4038dc:	89 43 0c             	mov    %eax,0xc(%ebx)
  4038df:	90                   	nop
  4038e0:	89 da                	mov    %ebx,%edx
  4038e2:	b8 30 00 00 00       	mov    $0x30,%eax
  4038e7:	e8 24 ee ff ff       	call   402710 <___pformat_putc>
  4038ec:	83 c6 01             	add    $0x1,%esi
  4038ef:	75 ef                	jne    4038e0 <___pformat_emit_float+0x2c0>
  4038f1:	e9 5b ff ff ff       	jmp    403851 <___pformat_emit_float+0x231>
  4038f6:	8d b4 26 00 00 00 00 	lea    0x0(%esi,%eiz,1),%esi
  4038fd:	8d 76 00             	lea    0x0(%esi),%esi
  403900:	8b 53 04             	mov    0x4(%ebx),%edx
  403903:	f6 c6 08             	test   $0x8,%dh
  403906:	0f 85 97 fe ff ff    	jne    4037a3 <___pformat_emit_float+0x183>
  40390c:	85 f6                	test   %esi,%esi
  40390e:	0f 8e 70 fd ff ff    	jle    403684 <___pformat_emit_float+0x64>
  403914:	80 e6 10             	and    $0x10,%dh
  403917:	0f 84 67 fd ff ff    	je     403684 <___pformat_emit_float+0x64>
  40391d:	66 83 7b 1c 00       	cmpw   $0x0,0x1c(%ebx)
  403922:	0f 84 5c fd ff ff    	je     403684 <___pformat_emit_float+0x64>
  403928:	89 c1                	mov    %eax,%ecx
  40392a:	e9 2e fd ff ff       	jmp    40365d <___pformat_emit_float+0x3d>
  40392f:	90                   	nop
  403930:	89 da                	mov    %ebx,%edx
  403932:	b8 2b 00 00 00       	mov    $0x2b,%eax
  403937:	e8 d4 ed ff ff       	call   402710 <___pformat_putc>
  40393c:	e9 a5 fd ff ff       	jmp    4036e6 <___pformat_emit_float+0xc6>
  403941:	8d b4 26 00 00 00 00 	lea    0x0(%esi,%eiz,1),%esi
  403948:	83 e8 01             	sub    $0x1,%eax
  40394b:	89 43 08             	mov    %eax,0x8(%ebx)
  40394e:	66 90                	xchg   %ax,%ax
  403950:	89 da                	mov    %ebx,%edx
  403952:	b8 30 00 00 00       	mov    $0x30,%eax
  403957:	e8 b4 ed ff ff       	call   402710 <___pformat_putc>
  40395c:	8b 43 08             	mov    0x8(%ebx),%eax
  40395f:	8d 50 ff             	lea    -0x1(%eax),%edx
  403962:	89 53 08             	mov    %edx,0x8(%ebx)
  403965:	85 c0                	test   %eax,%eax
  403967:	7f e7                	jg     403950 <___pformat_emit_float+0x330>
  403969:	e9 94 fd ff ff       	jmp    403702 <___pformat_emit_float+0xe2>
  40396e:	66 90                	xchg   %ax,%ax
  403970:	f6 c6 06             	test   $0x6,%dh
  403973:	0f 85 5b fd ff ff    	jne    4036d4 <___pformat_emit_float+0xb4>
  403979:	8b 43 08             	mov    0x8(%ebx),%eax
  40397c:	8d 48 ff             	lea    -0x1(%eax),%ecx
  40397f:	89 4b 08             	mov    %ecx,0x8(%ebx)
  403982:	85 c0                	test   %eax,%eax
  403984:	0f 8e 4a fd ff ff    	jle    4036d4 <___pformat_emit_float+0xb4>
  40398a:	e9 21 fd ff ff       	jmp    4036b0 <___pformat_emit_float+0x90>
  40398f:	90                   	nop
  403990:	0f 84 65 fe ff ff    	je     4037fb <___pformat_emit_float+0x1db>
  403996:	c7 43 08 ff ff ff ff 	movl   $0xffffffff,0x8(%ebx)
  40399d:	e9 67 fe ff ff       	jmp    403809 <___pformat_emit_float+0x1e9>
  4039a2:	8d b6 00 00 00 00    	lea    0x0(%esi),%esi
  4039a8:	89 da                	mov    %ebx,%edx
  4039aa:	b8 20 00 00 00       	mov    $0x20,%eax
  4039af:	e8 5c ed ff ff       	call   402710 <___pformat_putc>
  4039b4:	e9 2d fd ff ff       	jmp    4036e6 <___pformat_emit_float+0xc6>
  4039b9:	8d b4 26 00 00 00 00 	lea    0x0(%esi,%eiz,1),%esi

004039c0 <___pformat_emit_efloat>:
  4039c0:	55                   	push   %ebp
  4039c1:	57                   	push   %edi
  4039c2:	89 d7                	mov    %edx,%edi
  4039c4:	56                   	push   %esi
  4039c5:	53                   	push   %ebx
  4039c6:	8d 59 ff             	lea    -0x1(%ecx),%ebx
  4039c9:	b9 67 66 66 66       	mov    $0x66666667,%ecx
  4039ce:	83 ec 4c             	sub    $0x4c,%esp
  4039d1:	89 44 24 2c          	mov    %eax,0x2c(%esp)
  4039d5:	89 d8                	mov    %ebx,%eax
  4039d7:	8b 74 24 60          	mov    0x60(%esp),%esi
  4039db:	c1 f8 1f             	sar    $0x1f,%eax
  4039de:	89 5c 24 30          	mov    %ebx,0x30(%esp)
  4039e2:	89 44 24 34          	mov    %eax,0x34(%esp)
  4039e6:	89 d8                	mov    %ebx,%eax
  4039e8:	c1 fb 1f             	sar    $0x1f,%ebx
  4039eb:	f7 e9                	imul   %ecx
  4039ed:	89 d1                	mov    %edx,%ecx
  4039ef:	c1 f9 02             	sar    $0x2,%ecx
  4039f2:	29 d9                	sub    %ebx,%ecx
  4039f4:	bb 01 00 00 00       	mov    $0x1,%ebx
  4039f9:	74 1a                	je     403a15 <___pformat_emit_efloat+0x55>
  4039fb:	bd 67 66 66 66       	mov    $0x66666667,%ebp
  403a00:	89 c8                	mov    %ecx,%eax
  403a02:	83 c3 01             	add    $0x1,%ebx
  403a05:	f7 ed                	imul   %ebp
  403a07:	89 c8                	mov    %ecx,%eax
  403a09:	c1 f8 1f             	sar    $0x1f,%eax
  403a0c:	c1 fa 02             	sar    $0x2,%edx
  403a0f:	89 d1                	mov    %edx,%ecx
  403a11:	29 c1                	sub    %eax,%ecx
  403a13:	75 eb                	jne    403a00 <___pformat_emit_efloat+0x40>
  403a15:	8b 46 28             	mov    0x28(%esi),%eax
  403a18:	83 f8 ff             	cmp    $0xffffffff,%eax
  403a1b:	75 0c                	jne    403a29 <___pformat_emit_efloat+0x69>
  403a1d:	c7 46 28 02 00 00 00 	movl   $0x2,0x28(%esi)
  403a24:	b8 02 00 00 00       	mov    $0x2,%eax
  403a29:	39 c3                	cmp    %eax,%ebx
  403a2b:	8b 4e 08             	mov    0x8(%esi),%ecx
  403a2e:	0f 4c d8             	cmovl  %eax,%ebx
  403a31:	89 c8                	mov    %ecx,%eax
  403a33:	8d 53 02             	lea    0x2(%ebx),%edx
  403a36:	29 d0                	sub    %edx,%eax
  403a38:	39 d1                	cmp    %edx,%ecx
  403a3a:	ba ff ff ff ff       	mov    $0xffffffff,%edx
  403a3f:	b9 01 00 00 00       	mov    $0x1,%ecx
  403a44:	0f 4e c2             	cmovle %edx,%eax
  403a47:	89 fa                	mov    %edi,%edx
  403a49:	83 c3 01             	add    $0x1,%ebx
  403a4c:	89 46 08             	mov    %eax,0x8(%esi)
  403a4f:	8b 44 24 2c          	mov    0x2c(%esp),%eax
  403a53:	89 34 24             	mov    %esi,(%esp)
  403a56:	e8 c5 fb ff ff       	call   403620 <___pformat_emit_float>
  403a5b:	8b 46 28             	mov    0x28(%esi),%eax
  403a5e:	89 46 0c             	mov    %eax,0xc(%esi)
  403a61:	8b 46 04             	mov    0x4(%esi),%eax
  403a64:	89 c2                	mov    %eax,%edx
  403a66:	83 e0 20             	and    $0x20,%eax
  403a69:	81 ca c0 01 00 00    	or     $0x1c0,%edx
  403a6f:	83 c8 45             	or     $0x45,%eax
  403a72:	89 56 04             	mov    %edx,0x4(%esi)
  403a75:	89 f2                	mov    %esi,%edx
  403a77:	e8 94 ec ff ff       	call   402710 <___pformat_putc>
  403a7c:	8b 44 24 30          	mov    0x30(%esp),%eax
  403a80:	01 5e 08             	add    %ebx,0x8(%esi)
  403a83:	89 74 24 10          	mov    %esi,0x10(%esp)
  403a87:	89 04 24             	mov    %eax,(%esp)
  403a8a:	8b 44 24 34          	mov    0x34(%esp),%eax
  403a8e:	89 44 24 04          	mov    %eax,0x4(%esp)
  403a92:	8b 44 24 38          	mov    0x38(%esp),%eax
  403a96:	89 44 24 08          	mov    %eax,0x8(%esp)
  403a9a:	8b 44 24 3c          	mov    0x3c(%esp),%eax
  403a9e:	89 44 24 0c          	mov    %eax,0xc(%esp)
  403aa2:	e8 09 f6 ff ff       	call   4030b0 <___pformat_int>
  403aa7:	83 c4 4c             	add    $0x4c,%esp
  403aaa:	5b                   	pop    %ebx
  403aab:	5e                   	pop    %esi
  403aac:	5f                   	pop    %edi
  403aad:	5d                   	pop    %ebp
  403aae:	c3                   	ret
  403aaf:	90                   	nop

00403ab0 <___pformat_efloat>:
  403ab0:	56                   	push   %esi
  403ab1:	53                   	push   %ebx
  403ab2:	89 c3                	mov    %eax,%ebx
  403ab4:	83 ec 24             	sub    $0x24,%esp
  403ab7:	8b 50 0c             	mov    0xc(%eax),%edx
  403aba:	85 d2                	test   %edx,%edx
  403abc:	78 52                	js     403b10 <___pformat_efloat+0x60>
  403abe:	83 c2 01             	add    $0x1,%edx
  403ac1:	db 6c 24 30          	fldt   0x30(%esp)
  403ac5:	8d 44 24 18          	lea    0x18(%esp),%eax
  403ac9:	8d 4c 24 1c          	lea    0x1c(%esp),%ecx
  403acd:	89 44 24 0c          	mov    %eax,0xc(%esp)
  403ad1:	b8 02 00 00 00       	mov    $0x2,%eax
  403ad6:	db 3c 24             	fstpt  (%esp)
  403ad9:	e8 42 eb ff ff       	call   402620 <___pformat_cvt>
  403ade:	8b 4c 24 1c          	mov    0x1c(%esp),%ecx
  403ae2:	89 c6                	mov    %eax,%esi
  403ae4:	81 f9 00 80 ff ff    	cmp    $0xffff8000,%ecx
  403aea:	74 34                	je     403b20 <___pformat_efloat+0x70>
  403aec:	89 1c 24             	mov    %ebx,(%esp)
  403aef:	89 c2                	mov    %eax,%edx
  403af1:	8b 44 24 18          	mov    0x18(%esp),%eax
  403af5:	e8 c6 fe ff ff       	call   4039c0 <___pformat_emit_efloat>
  403afa:	89 34 24             	mov    %esi,(%esp)
  403afd:	e8 9e 14 00 00       	call   404fa0 <___freedtoa>
  403b02:	83 c4 24             	add    $0x24,%esp
  403b05:	5b                   	pop    %ebx
  403b06:	5e                   	pop    %esi
  403b07:	c3                   	ret
  403b08:	8d b4 26 00 00 00 00 	lea    0x0(%esi,%eiz,1),%esi
  403b0f:	90                   	nop
  403b10:	c7 40 0c 06 00 00 00 	movl   $0x6,0xc(%eax)
  403b17:	ba 07 00 00 00       	mov    $0x7,%edx
  403b1c:	eb a3                	jmp    403ac1 <___pformat_efloat+0x11>
  403b1e:	66 90                	xchg   %ax,%ax
  403b20:	89 c2                	mov    %eax,%edx
  403b22:	8b 44 24 18          	mov    0x18(%esp),%eax
  403b26:	89 d9                	mov    %ebx,%ecx
  403b28:	e8 53 ef ff ff       	call   402a80 <___pformat_emit_inf_or_nan>
  403b2d:	89 34 24             	mov    %esi,(%esp)
  403b30:	e8 6b 14 00 00       	call   404fa0 <___freedtoa>
  403b35:	83 c4 24             	add    $0x24,%esp
  403b38:	5b                   	pop    %ebx
  403b39:	5e                   	pop    %esi
  403b3a:	c3                   	ret
  403b3b:	8d 74 26 00          	lea    0x0(%esi,%eiz,1),%esi
  403b3f:	90                   	nop

00403b40 <___pformat_float>:
  403b40:	56                   	push   %esi
  403b41:	53                   	push   %ebx
  403b42:	89 c3                	mov    %eax,%ebx
  403b44:	83 ec 24             	sub    $0x24,%esp
  403b47:	8b 50 0c             	mov    0xc(%eax),%edx
  403b4a:	85 d2                	test   %edx,%edx
  403b4c:	79 0c                	jns    403b5a <___pformat_float+0x1a>
  403b4e:	c7 40 0c 06 00 00 00 	movl   $0x6,0xc(%eax)
  403b55:	ba 06 00 00 00       	mov    $0x6,%edx
  403b5a:	db 6c 24 30          	fldt   0x30(%esp)
  403b5e:	8d 44 24 18          	lea    0x18(%esp),%eax
  403b62:	8d 4c 24 1c          	lea    0x1c(%esp),%ecx
  403b66:	89 44 24 0c          	mov    %eax,0xc(%esp)
  403b6a:	b8 03 00 00 00       	mov    $0x3,%eax
  403b6f:	db 3c 24             	fstpt  (%esp)
  403b72:	e8 a9 ea ff ff       	call   402620 <___pformat_cvt>
  403b77:	8b 4c 24 1c          	mov    0x1c(%esp),%ecx
  403b7b:	89 c6                	mov    %eax,%esi
  403b7d:	81 f9 00 80 ff ff    	cmp    $0xffff8000,%ecx
  403b83:	74 6b                	je     403bf0 <___pformat_float+0xb0>
  403b85:	89 1c 24             	mov    %ebx,(%esp)
  403b88:	89 c2                	mov    %eax,%edx
  403b8a:	8b 44 24 18          	mov    0x18(%esp),%eax
  403b8e:	e8 8d fa ff ff       	call   403620 <___pformat_emit_float>
  403b93:	8b 43 08             	mov    0x8(%ebx),%eax
  403b96:	eb 1b                	jmp    403bb3 <___pformat_float+0x73>
  403b98:	8d b4 26 00 00 00 00 	lea    0x0(%esi,%eiz,1),%esi
  403b9f:	90                   	nop
  403ba0:	8b 53 20             	mov    0x20(%ebx),%edx
  403ba3:	c6 04 10 20          	movb   $0x20,(%eax,%edx,1)
  403ba7:	8b 53 20             	mov    0x20(%ebx),%edx
  403baa:	8b 43 08             	mov    0x8(%ebx),%eax
  403bad:	83 c2 01             	add    $0x1,%edx
  403bb0:	89 53 20             	mov    %edx,0x20(%ebx)
  403bb3:	89 c2                	mov    %eax,%edx
  403bb5:	83 e8 01             	sub    $0x1,%eax
  403bb8:	89 43 08             	mov    %eax,0x8(%ebx)
  403bbb:	85 d2                	test   %edx,%edx
  403bbd:	7e 3e                	jle    403bfd <___pformat_float+0xbd>
  403bbf:	8b 4b 04             	mov    0x4(%ebx),%ecx
  403bc2:	f6 c5 40             	test   $0x40,%ch
  403bc5:	75 08                	jne    403bcf <___pformat_float+0x8f>
  403bc7:	8b 53 20             	mov    0x20(%ebx),%edx
  403bca:	39 53 24             	cmp    %edx,0x24(%ebx)
  403bcd:	7e de                	jle    403bad <___pformat_float+0x6d>
  403bcf:	8b 03                	mov    (%ebx),%eax
  403bd1:	80 e5 20             	and    $0x20,%ch
  403bd4:	74 ca                	je     403ba0 <___pformat_float+0x60>
  403bd6:	89 44 24 04          	mov    %eax,0x4(%esp)
  403bda:	c7 04 24 20 00 00 00 	movl   $0x20,(%esp)
  403be1:	e8 c2 44 00 00       	call   4080a8 <_fputc>
  403be6:	8b 53 20             	mov    0x20(%ebx),%edx
  403be9:	8b 43 08             	mov    0x8(%ebx),%eax
  403bec:	eb bf                	jmp    403bad <___pformat_float+0x6d>
  403bee:	66 90                	xchg   %ax,%ax
  403bf0:	89 c2                	mov    %eax,%edx
  403bf2:	8b 44 24 18          	mov    0x18(%esp),%eax
  403bf6:	89 d9                	mov    %ebx,%ecx
  403bf8:	e8 83 ee ff ff       	call   402a80 <___pformat_emit_inf_or_nan>
  403bfd:	89 34 24             	mov    %esi,(%esp)
  403c00:	e8 9b 13 00 00       	call   404fa0 <___freedtoa>
  403c05:	83 c4 24             	add    $0x24,%esp
  403c08:	5b                   	pop    %ebx
  403c09:	5e                   	pop    %esi
  403c0a:	c3                   	ret
  403c0b:	8d 74 26 00          	lea    0x0(%esi,%eiz,1),%esi
  403c0f:	90                   	nop

00403c10 <___pformat_gfloat>:
  403c10:	57                   	push   %edi
  403c11:	56                   	push   %esi
  403c12:	53                   	push   %ebx
  403c13:	89 c3                	mov    %eax,%ebx
  403c15:	83 ec 20             	sub    $0x20,%esp
  403c18:	8b 50 0c             	mov    0xc(%eax),%edx
  403c1b:	85 d2                	test   %edx,%edx
  403c1d:	0f 88 f5 00 00 00    	js     403d18 <___pformat_gfloat+0x108>
  403c23:	0f 84 d7 00 00 00    	je     403d00 <___pformat_gfloat+0xf0>
  403c29:	db 6c 24 30          	fldt   0x30(%esp)
  403c2d:	8d 44 24 18          	lea    0x18(%esp),%eax
  403c31:	8d 4c 24 1c          	lea    0x1c(%esp),%ecx
  403c35:	89 44 24 0c          	mov    %eax,0xc(%esp)
  403c39:	b8 02 00 00 00       	mov    $0x2,%eax
  403c3e:	db 3c 24             	fstpt  (%esp)
  403c41:	e8 da e9 ff ff       	call   402620 <___pformat_cvt>
  403c46:	8b 7c 24 1c          	mov    0x1c(%esp),%edi
  403c4a:	89 c6                	mov    %eax,%esi
  403c4c:	81 ff 00 80 ff ff    	cmp    $0xffff8000,%edi
  403c52:	0f 84 d8 00 00 00    	je     403d30 <___pformat_gfloat+0x120>
  403c58:	8b 43 04             	mov    0x4(%ebx),%eax
  403c5b:	25 00 08 00 00       	and    $0x800,%eax
  403c60:	83 ff fd             	cmp    $0xfffffffd,%edi
  403c63:	7c 5b                	jl     403cc0 <___pformat_gfloat+0xb0>
  403c65:	8b 53 0c             	mov    0xc(%ebx),%edx
  403c68:	39 d7                	cmp    %edx,%edi
  403c6a:	7f 54                	jg     403cc0 <___pformat_gfloat+0xb0>
  403c6c:	85 c0                	test   %eax,%eax
  403c6e:	0f 84 dc 00 00 00    	je     403d50 <___pformat_gfloat+0x140>
  403c74:	29 fa                	sub    %edi,%edx
  403c76:	89 53 0c             	mov    %edx,0xc(%ebx)
  403c79:	89 1c 24             	mov    %ebx,(%esp)
  403c7c:	8b 44 24 18          	mov    0x18(%esp),%eax
  403c80:	89 f9                	mov    %edi,%ecx
  403c82:	89 f2                	mov    %esi,%edx
  403c84:	e8 97 f9 ff ff       	call   403620 <___pformat_emit_float>
  403c89:	eb 11                	jmp    403c9c <___pformat_gfloat+0x8c>
  403c8b:	8d 74 26 00          	lea    0x0(%esi,%eiz,1),%esi
  403c8f:	90                   	nop
  403c90:	89 da                	mov    %ebx,%edx
  403c92:	b8 20 00 00 00       	mov    $0x20,%eax
  403c97:	e8 74 ea ff ff       	call   402710 <___pformat_putc>
  403c9c:	8b 43 08             	mov    0x8(%ebx),%eax
  403c9f:	8d 50 ff             	lea    -0x1(%eax),%edx
  403ca2:	89 53 08             	mov    %edx,0x8(%ebx)
  403ca5:	85 c0                	test   %eax,%eax
  403ca7:	7f e7                	jg     403c90 <___pformat_gfloat+0x80>
  403ca9:	89 34 24             	mov    %esi,(%esp)
  403cac:	e8 ef 12 00 00       	call   404fa0 <___freedtoa>
  403cb1:	83 c4 20             	add    $0x20,%esp
  403cb4:	5b                   	pop    %ebx
  403cb5:	5e                   	pop    %esi
  403cb6:	5f                   	pop    %edi
  403cb7:	c3                   	ret
  403cb8:	8d b4 26 00 00 00 00 	lea    0x0(%esi,%eiz,1),%esi
  403cbf:	90                   	nop
  403cc0:	85 c0                	test   %eax,%eax
  403cc2:	75 34                	jne    403cf8 <___pformat_gfloat+0xe8>
  403cc4:	89 34 24             	mov    %esi,(%esp)
  403cc7:	e8 24 44 00 00       	call   4080f0 <_strlen>
  403ccc:	83 e8 01             	sub    $0x1,%eax
  403ccf:	89 43 0c             	mov    %eax,0xc(%ebx)
  403cd2:	8b 44 24 18          	mov    0x18(%esp),%eax
  403cd6:	89 f9                	mov    %edi,%ecx
  403cd8:	89 f2                	mov    %esi,%edx
  403cda:	89 1c 24             	mov    %ebx,(%esp)
  403cdd:	e8 de fc ff ff       	call   4039c0 <___pformat_emit_efloat>
  403ce2:	89 34 24             	mov    %esi,(%esp)
  403ce5:	e8 b6 12 00 00       	call   404fa0 <___freedtoa>
  403cea:	83 c4 20             	add    $0x20,%esp
  403ced:	5b                   	pop    %ebx
  403cee:	5e                   	pop    %esi
  403cef:	5f                   	pop    %edi
  403cf0:	c3                   	ret
  403cf1:	8d b4 26 00 00 00 00 	lea    0x0(%esi,%eiz,1),%esi
  403cf8:	8b 43 0c             	mov    0xc(%ebx),%eax
  403cfb:	83 e8 01             	sub    $0x1,%eax
  403cfe:	eb cf                	jmp    403ccf <___pformat_gfloat+0xbf>
  403d00:	c7 40 0c 01 00 00 00 	movl   $0x1,0xc(%eax)
  403d07:	ba 01 00 00 00       	mov    $0x1,%edx
  403d0c:	e9 18 ff ff ff       	jmp    403c29 <___pformat_gfloat+0x19>
  403d11:	8d b4 26 00 00 00 00 	lea    0x0(%esi,%eiz,1),%esi
  403d18:	c7 40 0c 06 00 00 00 	movl   $0x6,0xc(%eax)
  403d1f:	ba 06 00 00 00       	mov    $0x6,%edx
  403d24:	e9 00 ff ff ff       	jmp    403c29 <___pformat_gfloat+0x19>
  403d29:	8d b4 26 00 00 00 00 	lea    0x0(%esi,%eiz,1),%esi
  403d30:	89 c2                	mov    %eax,%edx
  403d32:	8b 44 24 18          	mov    0x18(%esp),%eax
  403d36:	89 d9                	mov    %ebx,%ecx
  403d38:	e8 43 ed ff ff       	call   402a80 <___pformat_emit_inf_or_nan>
  403d3d:	89 34 24             	mov    %esi,(%esp)
  403d40:	e8 5b 12 00 00       	call   404fa0 <___freedtoa>
  403d45:	83 c4 20             	add    $0x20,%esp
  403d48:	5b                   	pop    %ebx
  403d49:	5e                   	pop    %esi
  403d4a:	5f                   	pop    %edi
  403d4b:	c3                   	ret
  403d4c:	8d 74 26 00          	lea    0x0(%esi,%eiz,1),%esi
  403d50:	89 34 24             	mov    %esi,(%esp)
  403d53:	e8 98 43 00 00       	call   4080f0 <_strlen>
  403d58:	29 f8                	sub    %edi,%eax
  403d5a:	89 43 0c             	mov    %eax,0xc(%ebx)
  403d5d:	0f 89 16 ff ff ff    	jns    403c79 <___pformat_gfloat+0x69>
  403d63:	8b 53 08             	mov    0x8(%ebx),%edx
  403d66:	85 d2                	test   %edx,%edx
  403d68:	0f 8e 0b ff ff ff    	jle    403c79 <___pformat_gfloat+0x69>
  403d6e:	01 d0                	add    %edx,%eax
  403d70:	89 43 08             	mov    %eax,0x8(%ebx)
  403d73:	e9 01 ff ff ff       	jmp    403c79 <___pformat_gfloat+0x69>
  403d78:	8d b4 26 00 00 00 00 	lea    0x0(%esi,%eiz,1),%esi
  403d7f:	90                   	nop

00403d80 <___pformat_emit_xfloat.isra.0>:
  403d80:	55                   	push   %ebp
  403d81:	89 d5                	mov    %edx,%ebp
  403d83:	57                   	push   %edi
  403d84:	89 c7                	mov    %eax,%edi
  403d86:	89 c8                	mov    %ecx,%eax
  403d88:	56                   	push   %esi
  403d89:	89 fe                	mov    %edi,%esi
  403d8b:	53                   	push   %ebx
  403d8c:	83 ec 7c             	sub    $0x7c,%esp
  403d8f:	09 d6                	or     %edx,%esi
  403d91:	8b 9c 24 90 00 00 00 	mov    0x90(%esp),%ebx
  403d98:	0f 95 c1             	setne  %cl
  403d9b:	66 85 c0             	test   %ax,%ax
  403d9e:	75 0b                	jne    403dab <___pformat_emit_xfloat.isra.0+0x2b>
  403da0:	31 f6                	xor    %esi,%esi
  403da2:	66 89 74 24 34       	mov    %si,0x34(%esp)
  403da7:	84 c9                	test   %cl,%cl
  403da9:	74 08                	je     403db3 <___pformat_emit_xfloat.isra.0+0x33>
  403dab:	83 e8 03             	sub    $0x3,%eax
  403dae:	66 89 44 24 34       	mov    %ax,0x34(%esp)
  403db3:	8b 73 0c             	mov    0xc(%ebx),%esi
  403db6:	85 f6                	test   %esi,%esi
  403db8:	89 74 24 28          	mov    %esi,0x28(%esp)
  403dbc:	0f 9f 44 24 2c       	setg   0x2c(%esp)
  403dc1:	83 fe 0e             	cmp    $0xe,%esi
  403dc4:	0f 87 ae 01 00 00    	ja     403f78 <___pformat_emit_xfloat.isra.0+0x1f8>
  403dca:	b9 0e 00 00 00       	mov    $0xe,%ecx
  403dcf:	b8 04 00 00 00       	mov    $0x4,%eax
  403dd4:	31 d2                	xor    %edx,%edx
  403dd6:	29 f1                	sub    %esi,%ecx
  403dd8:	31 f6                	xor    %esi,%esi
  403dda:	c1 e1 02             	shl    $0x2,%ecx
  403ddd:	0f a5 c2             	shld   %cl,%eax,%edx
  403de0:	d3 e0                	shl    %cl,%eax
  403de2:	f6 c1 20             	test   $0x20,%cl
  403de5:	0f 45 d0             	cmovne %eax,%edx
  403de8:	0f 45 c6             	cmovne %esi,%eax
  403deb:	0f ac ef 01          	shrd   $0x1,%ebp,%edi
  403def:	89 fe                	mov    %edi,%esi
  403df1:	d1 ed                	shr    %ebp
  403df3:	89 ef                	mov    %ebp,%edi
  403df5:	01 c6                	add    %eax,%esi
  403df7:	11 d7                	adc    %edx,%edi
  403df9:	85 ff                	test   %edi,%edi
  403dfb:	0f 88 8f 01 00 00    	js     403f90 <___pformat_emit_xfloat.isra.0+0x210>
  403e01:	0f a4 f7 01          	shld   $0x1,%esi,%edi
  403e05:	b9 0f 00 00 00       	mov    $0xf,%ecx
  403e0a:	01 f6                	add    %esi,%esi
  403e0c:	2b 4c 24 28          	sub    0x28(%esp),%ecx
  403e10:	c1 e1 02             	shl    $0x2,%ecx
  403e13:	89 fd                	mov    %edi,%ebp
  403e15:	89 f7                	mov    %esi,%edi
  403e17:	31 c0                	xor    %eax,%eax
  403e19:	0f ad ef             	shrd   %cl,%ebp,%edi
  403e1c:	d3 ed                	shr    %cl,%ebp
  403e1e:	f6 c1 20             	test   $0x20,%cl
  403e21:	0f 45 fd             	cmovne %ebp,%edi
  403e24:	0f 45 e8             	cmovne %eax,%ebp
  403e27:	89 f8                	mov    %edi,%eax
  403e29:	09 e8                	or     %ebp,%eax
  403e2b:	0f 85 8c 01 00 00    	jne    403fbd <___pformat_emit_xfloat.isra.0+0x23d>
  403e31:	80 7c 24 2c 00       	cmpb   $0x0,0x2c(%esp)
  403e36:	0f 85 81 01 00 00    	jne    403fbd <___pformat_emit_xfloat.isra.0+0x23d>
  403e3c:	8b 43 04             	mov    0x4(%ebx),%eax
  403e3f:	89 44 24 38          	mov    %eax,0x38(%esp)
  403e43:	8d 44 24 58          	lea    0x58(%esp),%eax
  403e47:	89 44 24 28          	mov    %eax,0x28(%esp)
  403e4b:	8b 7c 24 38          	mov    0x38(%esp),%edi
  403e4f:	8b 44 24 28          	mov    0x28(%esp),%eax
  403e53:	89 7c 24 30          	mov    %edi,0x30(%esp)
  403e57:	81 e7 00 08 00 00    	and    $0x800,%edi
  403e5d:	0f 85 02 02 00 00    	jne    404065 <___pformat_emit_xfloat.isra.0+0x2e5>
  403e63:	c6 00 30             	movb   $0x30,(%eax)
  403e66:	8d 70 01             	lea    0x1(%eax),%esi
  403e69:	8b 43 08             	mov    0x8(%ebx),%eax
  403e6c:	89 44 24 3c          	mov    %eax,0x3c(%esp)
  403e70:	85 c0                	test   %eax,%eax
  403e72:	0f 8e 28 02 00 00    	jle    4040a0 <___pformat_emit_xfloat.isra.0+0x320>
  403e78:	8b 53 0c             	mov    0xc(%ebx),%edx
  403e7b:	89 f0                	mov    %esi,%eax
  403e7d:	2b 44 24 28          	sub    0x28(%esp),%eax
  403e81:	0f bf 6c 24 34       	movswl 0x34(%esp),%ebp
  403e86:	85 d2                	test   %edx,%edx
  403e88:	8d 0c 10             	lea    (%eax,%edx,1),%ecx
  403e8b:	8b 54 24 38          	mov    0x38(%esp),%edx
  403e8f:	0f 4f c1             	cmovg  %ecx,%eax
  403e92:	89 6c 24 2c          	mov    %ebp,0x2c(%esp)
  403e96:	81 e2 c0 01 00 00    	and    $0x1c0,%edx
  403e9c:	83 fa 01             	cmp    $0x1,%edx
  403e9f:	89 c7                	mov    %eax,%edi
  403ea1:	ba 67 66 66 66       	mov    $0x66666667,%edx
  403ea6:	89 e8                	mov    %ebp,%eax
  403ea8:	83 df fa             	sbb    $0xfffffffa,%edi
  403eab:	f7 ea                	imul   %edx
  403ead:	89 e8                	mov    %ebp,%eax
  403eaf:	c1 f8 1f             	sar    $0x1f,%eax
  403eb2:	c1 fa 02             	sar    $0x2,%edx
  403eb5:	89 d1                	mov    %edx,%ecx
  403eb7:	29 c1                	sub    %eax,%ecx
  403eb9:	0f 84 92 03 00 00    	je     404251 <___pformat_emit_xfloat.isra.0+0x4d1>
  403ebf:	89 9c 24 90 00 00 00 	mov    %ebx,0x90(%esp)
  403ec6:	bd 67 66 66 66       	mov    $0x66666667,%ebp
  403ecb:	89 74 24 34          	mov    %esi,0x34(%esp)
  403ecf:	89 fe                	mov    %edi,%esi
  403ed1:	8d b4 26 00 00 00 00 	lea    0x0(%esi,%eiz,1),%esi
  403ed8:	89 c8                	mov    %ecx,%eax
  403eda:	83 c7 01             	add    $0x1,%edi
  403edd:	f7 ed                	imul   %ebp
  403edf:	89 c8                	mov    %ecx,%eax
  403ee1:	8d 5f 02             	lea    0x2(%edi),%ebx
  403ee4:	c1 f8 1f             	sar    $0x1f,%eax
  403ee7:	29 f3                	sub    %esi,%ebx
  403ee9:	c1 fa 02             	sar    $0x2,%edx
  403eec:	89 d1                	mov    %edx,%ecx
  403eee:	29 c1                	sub    %eax,%ecx
  403ef0:	75 e6                	jne    403ed8 <___pformat_emit_xfloat.isra.0+0x158>
  403ef2:	0f bf eb             	movswl %bx,%ebp
  403ef5:	8b 74 24 34          	mov    0x34(%esp),%esi
  403ef9:	8b 9c 24 90 00 00 00 	mov    0x90(%esp),%ebx
  403f00:	8b 44 24 3c          	mov    0x3c(%esp),%eax
  403f04:	39 f8                	cmp    %edi,%eax
  403f06:	0f 8e fc 02 00 00    	jle    404208 <___pformat_emit_xfloat.isra.0+0x488>
  403f0c:	29 f8                	sub    %edi,%eax
  403f0e:	f7 44 24 38 00 06 00 	testl  $0x600,0x38(%esp)
  403f15:	00 
  403f16:	0f 85 14 03 00 00    	jne    404230 <___pformat_emit_xfloat.isra.0+0x4b0>
  403f1c:	8d 50 ff             	lea    -0x1(%eax),%edx
  403f1f:	89 53 08             	mov    %edx,0x8(%ebx)
  403f22:	85 c0                	test   %eax,%eax
  403f24:	0f 8e 84 01 00 00    	jle    4040ae <___pformat_emit_xfloat.isra.0+0x32e>
  403f2a:	8d b6 00 00 00 00    	lea    0x0(%esi),%esi
  403f30:	89 da                	mov    %ebx,%edx
  403f32:	b8 20 00 00 00       	mov    $0x20,%eax
  403f37:	e8 d4 e7 ff ff       	call   402710 <___pformat_putc>
  403f3c:	8b 43 08             	mov    0x8(%ebx),%eax
  403f3f:	8d 50 ff             	lea    -0x1(%eax),%edx
  403f42:	89 53 08             	mov    %edx,0x8(%ebx)
  403f45:	85 c0                	test   %eax,%eax
  403f47:	7f e7                	jg     403f30 <___pformat_emit_xfloat.isra.0+0x1b0>
  403f49:	8b 43 04             	mov    0x4(%ebx),%eax
  403f4c:	89 44 24 30          	mov    %eax,0x30(%esp)
  403f50:	f6 44 24 30 80       	testb  $0x80,0x30(%esp)
  403f55:	0f 84 5e 01 00 00    	je     4040b9 <___pformat_emit_xfloat.isra.0+0x339>
  403f5b:	8d 74 26 00          	lea    0x0(%esi,%eiz,1),%esi
  403f5f:	90                   	nop
  403f60:	89 da                	mov    %ebx,%edx
  403f62:	b8 2d 00 00 00       	mov    $0x2d,%eax
  403f67:	e8 a4 e7 ff ff       	call   402710 <___pformat_putc>
  403f6c:	e9 61 01 00 00       	jmp    4040d2 <___pformat_emit_xfloat.isra.0+0x352>
  403f71:	8d b4 26 00 00 00 00 	lea    0x0(%esi,%eiz,1),%esi
  403f78:	84 c9                	test   %cl,%cl
  403f7a:	75 0b                	jne    403f87 <___pformat_emit_xfloat.isra.0+0x207>
  403f7c:	80 7c 24 2c 00       	cmpb   $0x0,0x2c(%esp)
  403f81:	0f 84 b5 fe ff ff    	je     403e3c <___pformat_emit_xfloat.isra.0+0xbc>
  403f87:	b8 10 00 00 00       	mov    $0x10,%eax
  403f8c:	eb 36                	jmp    403fc4 <___pformat_emit_xfloat.isra.0+0x244>
  403f8e:	66 90                	xchg   %ax,%ax
  403f90:	0f ac fe 03          	shrd   $0x3,%edi,%esi
  403f94:	b9 0f 00 00 00       	mov    $0xf,%ecx
  403f99:	c1 ef 03             	shr    $0x3,%edi
  403f9c:	31 c0                	xor    %eax,%eax
  403f9e:	2b 4c 24 28          	sub    0x28(%esp),%ecx
  403fa2:	89 fd                	mov    %edi,%ebp
  403fa4:	89 f7                	mov    %esi,%edi
  403fa6:	66 83 44 24 34 04    	addw   $0x4,0x34(%esp)
  403fac:	c1 e1 02             	shl    $0x2,%ecx
  403faf:	0f ad ef             	shrd   %cl,%ebp,%edi
  403fb2:	d3 ed                	shr    %cl,%ebp
  403fb4:	83 e1 20             	and    $0x20,%ecx
  403fb7:	0f 45 fd             	cmovne %ebp,%edi
  403fba:	0f 45 e8             	cmovne %eax,%ebp
  403fbd:	8b 44 24 28          	mov    0x28(%esp),%eax
  403fc1:	83 c0 01             	add    $0x1,%eax
  403fc4:	8b 4b 04             	mov    0x4(%ebx),%ecx
  403fc7:	8d 74 24 58          	lea    0x58(%esp),%esi
  403fcb:	89 74 24 28          	mov    %esi,0x28(%esp)
  403fcf:	89 ca                	mov    %ecx,%edx
  403fd1:	89 4c 24 38          	mov    %ecx,0x38(%esp)
  403fd5:	89 4c 24 30          	mov    %ecx,0x30(%esp)
  403fd9:	81 e2 00 08 00 00    	and    $0x800,%edx
  403fdf:	83 e1 20             	and    $0x20,%ecx
  403fe2:	88 4c 24 2c          	mov    %cl,0x2c(%esp)
  403fe6:	89 54 24 3c          	mov    %edx,0x3c(%esp)
  403fea:	eb 27                	jmp    404013 <___pformat_emit_xfloat.isra.0+0x293>
  403fec:	8d 74 26 00          	lea    0x0(%esi,%eiz,1),%esi
  403ff0:	3b 74 24 28          	cmp    0x28(%esp),%esi
  403ff4:	77 07                	ja     403ffd <___pformat_emit_xfloat.isra.0+0x27d>
  403ff6:	8b 4b 0c             	mov    0xc(%ebx),%ecx
  403ff9:	85 c9                	test   %ecx,%ecx
  403ffb:	78 0a                	js     404007 <___pformat_emit_xfloat.isra.0+0x287>
  403ffd:	83 c2 30             	add    $0x30,%edx
  404000:	89 f1                	mov    %esi,%ecx
  404002:	88 11                	mov    %dl,(%ecx)
  404004:	83 c6 01             	add    $0x1,%esi
  404007:	0f ac ef 04          	shrd   $0x4,%ebp,%edi
  40400b:	c1 ed 04             	shr    $0x4,%ebp
  40400e:	83 e8 01             	sub    $0x1,%eax
  404011:	74 3d                	je     404050 <___pformat_emit_xfloat.isra.0+0x2d0>
  404013:	89 fa                	mov    %edi,%edx
  404015:	83 e2 0f             	and    $0xf,%edx
  404018:	83 f8 01             	cmp    $0x1,%eax
  40401b:	74 5b                	je     404078 <___pformat_emit_xfloat.isra.0+0x2f8>
  40401d:	8b 4b 0c             	mov    0xc(%ebx),%ecx
  404020:	85 c9                	test   %ecx,%ecx
  404022:	7e 06                	jle    40402a <___pformat_emit_xfloat.isra.0+0x2aa>
  404024:	83 e9 01             	sub    $0x1,%ecx
  404027:	89 4b 0c             	mov    %ecx,0xc(%ebx)
  40402a:	85 d2                	test   %edx,%edx
  40402c:	74 c2                	je     403ff0 <___pformat_emit_xfloat.isra.0+0x270>
  40402e:	83 fa 09             	cmp    $0x9,%edx
  404031:	76 ca                	jbe    403ffd <___pformat_emit_xfloat.isra.0+0x27d>
  404033:	83 c2 37             	add    $0x37,%edx
  404036:	89 f1                	mov    %esi,%ecx
  404038:	0a 54 24 2c          	or     0x2c(%esp),%dl
  40403c:	eb c4                	jmp    404002 <___pformat_emit_xfloat.isra.0+0x282>
  40403e:	66 90                	xchg   %ax,%ax
  404040:	85 d2                	test   %edx,%edx
  404042:	75 ea                	jne    40402e <___pformat_emit_xfloat.isra.0+0x2ae>
  404044:	85 c9                	test   %ecx,%ecx
  404046:	74 b5                	je     403ffd <___pformat_emit_xfloat.isra.0+0x27d>
  404048:	8d b4 26 00 00 00 00 	lea    0x0(%esi,%eiz,1),%esi
  40404f:	90                   	nop
  404050:	3b 74 24 28          	cmp    0x28(%esp),%esi
  404054:	0f 85 0f fe ff ff    	jne    403e69 <___pformat_emit_xfloat.isra.0+0xe9>
  40405a:	8b 43 0c             	mov    0xc(%ebx),%eax
  40405d:	85 c0                	test   %eax,%eax
  40405f:	0f 8e e6 fd ff ff    	jle    403e4b <___pformat_emit_xfloat.isra.0+0xcb>
  404065:	c6 44 24 58 2e       	movb   $0x2e,0x58(%esp)
  40406a:	8d 44 24 59          	lea    0x59(%esp),%eax
  40406e:	e9 f0 fd ff ff       	jmp    403e63 <___pformat_emit_xfloat.isra.0+0xe3>
  404073:	8d 74 26 00          	lea    0x0(%esi,%eiz,1),%esi
  404077:	90                   	nop
  404078:	3b 74 24 28          	cmp    0x28(%esp),%esi
  40407c:	77 12                	ja     404090 <___pformat_emit_xfloat.isra.0+0x310>
  40407e:	8b 4c 24 3c          	mov    0x3c(%esp),%ecx
  404082:	85 c9                	test   %ecx,%ecx
  404084:	75 0a                	jne    404090 <___pformat_emit_xfloat.isra.0+0x310>
  404086:	8b 4b 0c             	mov    0xc(%ebx),%ecx
  404089:	85 c9                	test   %ecx,%ecx
  40408b:	7e b3                	jle    404040 <___pformat_emit_xfloat.isra.0+0x2c0>
  40408d:	8d 76 00             	lea    0x0(%esi),%esi
  404090:	c6 06 2e             	movb   $0x2e,(%esi)
  404093:	83 c6 01             	add    $0x1,%esi
  404096:	eb 92                	jmp    40402a <___pformat_emit_xfloat.isra.0+0x2aa>
  404098:	8d b4 26 00 00 00 00 	lea    0x0(%esi,%eiz,1),%esi
  40409f:	90                   	nop
  4040a0:	0f bf 44 24 34       	movswl 0x34(%esp),%eax
  4040a5:	bd 02 00 00 00       	mov    $0x2,%ebp
  4040aa:	89 44 24 2c          	mov    %eax,0x2c(%esp)
  4040ae:	f6 44 24 30 80       	testb  $0x80,0x30(%esp)
  4040b3:	0f 85 a7 fe ff ff    	jne    403f60 <___pformat_emit_xfloat.isra.0+0x1e0>
  4040b9:	f7 44 24 30 00 01 00 	testl  $0x100,0x30(%esp)
  4040c0:	00 
  4040c1:	0f 85 51 01 00 00    	jne    404218 <___pformat_emit_xfloat.isra.0+0x498>
  4040c7:	f6 44 24 30 40       	testb  $0x40,0x30(%esp)
  4040cc:	0f 85 6e 01 00 00    	jne    404240 <___pformat_emit_xfloat.isra.0+0x4c0>
  4040d2:	89 da                	mov    %ebx,%edx
  4040d4:	b8 30 00 00 00       	mov    $0x30,%eax
  4040d9:	e8 32 e6 ff ff       	call   402710 <___pformat_putc>
  4040de:	8b 43 04             	mov    0x4(%ebx),%eax
  4040e1:	89 da                	mov    %ebx,%edx
  4040e3:	83 e0 20             	and    $0x20,%eax
  4040e6:	83 c8 58             	or     $0x58,%eax
  4040e9:	e8 22 e6 ff ff       	call   402710 <___pformat_putc>
  4040ee:	8b 43 08             	mov    0x8(%ebx),%eax
  4040f1:	85 c0                	test   %eax,%eax
  4040f3:	7e 2c                	jle    404121 <___pformat_emit_xfloat.isra.0+0x3a1>
  4040f5:	f6 43 05 02          	testb  $0x2,0x5(%ebx)
  4040f9:	74 26                	je     404121 <___pformat_emit_xfloat.isra.0+0x3a1>
  4040fb:	83 e8 01             	sub    $0x1,%eax
  4040fe:	89 43 08             	mov    %eax,0x8(%ebx)
  404101:	8d b4 26 00 00 00 00 	lea    0x0(%esi,%eiz,1),%esi
  404108:	89 da                	mov    %ebx,%edx
  40410a:	b8 30 00 00 00       	mov    $0x30,%eax
  40410f:	e8 fc e5 ff ff       	call   402710 <___pformat_putc>
  404114:	8b 43 08             	mov    0x8(%ebx),%eax
  404117:	8d 50 ff             	lea    -0x1(%eax),%edx
  40411a:	89 53 08             	mov    %edx,0x8(%ebx)
  40411d:	85 c0                	test   %eax,%eax
  40411f:	7f e7                	jg     404108 <___pformat_emit_xfloat.isra.0+0x388>
  404121:	8b 7c 24 28          	mov    0x28(%esp),%edi
  404125:	3b 74 24 28          	cmp    0x28(%esp),%esi
  404129:	77 1b                	ja     404146 <___pformat_emit_xfloat.isra.0+0x3c6>
  40412b:	eb 47                	jmp    404174 <___pformat_emit_xfloat.isra.0+0x3f4>
  40412d:	8d 76 00             	lea    0x0(%esi),%esi
  404130:	0f b7 43 1c          	movzwl 0x1c(%ebx),%eax
  404134:	66 89 44 24 48       	mov    %ax,0x48(%esp)
  404139:	66 85 c0             	test   %ax,%ax
  40413c:	0f 85 ae 00 00 00    	jne    4041f0 <___pformat_emit_xfloat.isra.0+0x470>
  404142:	39 fe                	cmp    %edi,%esi
  404144:	74 2e                	je     404174 <___pformat_emit_xfloat.isra.0+0x3f4>
  404146:	0f be 46 ff          	movsbl -0x1(%esi),%eax
  40414a:	83 ee 01             	sub    $0x1,%esi
  40414d:	83 f8 2e             	cmp    $0x2e,%eax
  404150:	0f 84 8a 00 00 00    	je     4041e0 <___pformat_emit_xfloat.isra.0+0x460>
  404156:	83 f8 2c             	cmp    $0x2c,%eax
  404159:	74 d5                	je     404130 <___pformat_emit_xfloat.isra.0+0x3b0>
  40415b:	89 da                	mov    %ebx,%edx
  40415d:	e8 ae e5 ff ff       	call   402710 <___pformat_putc>
  404162:	eb de                	jmp    404142 <___pformat_emit_xfloat.isra.0+0x3c2>
  404164:	8d 74 26 00          	lea    0x0(%esi,%eiz,1),%esi
  404168:	89 da                	mov    %ebx,%edx
  40416a:	b8 30 00 00 00       	mov    $0x30,%eax
  40416f:	e8 9c e5 ff ff       	call   402710 <___pformat_putc>
  404174:	8b 43 0c             	mov    0xc(%ebx),%eax
  404177:	8d 50 ff             	lea    -0x1(%eax),%edx
  40417a:	89 53 0c             	mov    %edx,0xc(%ebx)
  40417d:	85 c0                	test   %eax,%eax
  40417f:	7f e7                	jg     404168 <___pformat_emit_xfloat.isra.0+0x3e8>
  404181:	8b 43 04             	mov    0x4(%ebx),%eax
  404184:	89 da                	mov    %ebx,%edx
  404186:	83 e0 20             	and    $0x20,%eax
  404189:	83 c8 50             	or     $0x50,%eax
  40418c:	e8 7f e5 ff ff       	call   402710 <___pformat_putc>
  404191:	8b 44 24 2c          	mov    0x2c(%esp),%eax
  404195:	01 6b 08             	add    %ebp,0x8(%ebx)
  404198:	81 4b 04 c0 01 00 00 	orl    $0x1c0,0x4(%ebx)
  40419f:	99                   	cltd
  4041a0:	89 44 24 48          	mov    %eax,0x48(%esp)
  4041a4:	89 54 24 4c          	mov    %edx,0x4c(%esp)
  4041a8:	89 d1                	mov    %edx,%ecx
  4041aa:	89 04 24             	mov    %eax,(%esp)
  4041ad:	8b 44 24 4c          	mov    0x4c(%esp),%eax
  4041b1:	c1 f9 1f             	sar    $0x1f,%ecx
  4041b4:	89 5c 24 10          	mov    %ebx,0x10(%esp)
  4041b8:	89 4c 24 50          	mov    %ecx,0x50(%esp)
  4041bc:	89 4c 24 54          	mov    %ecx,0x54(%esp)
  4041c0:	89 44 24 04          	mov    %eax,0x4(%esp)
  4041c4:	89 4c 24 08          	mov    %ecx,0x8(%esp)
  4041c8:	89 4c 24 0c          	mov    %ecx,0xc(%esp)
  4041cc:	e8 df ee ff ff       	call   4030b0 <___pformat_int>
  4041d1:	83 c4 7c             	add    $0x7c,%esp
  4041d4:	5b                   	pop    %ebx
  4041d5:	5e                   	pop    %esi
  4041d6:	5f                   	pop    %edi
  4041d7:	5d                   	pop    %ebp
  4041d8:	c3                   	ret
  4041d9:	8d b4 26 00 00 00 00 	lea    0x0(%esi,%eiz,1),%esi
  4041e0:	89 d8                	mov    %ebx,%eax
  4041e2:	e8 e9 f2 ff ff       	call   4034d0 <___pformat_emit_radix_point>
  4041e7:	e9 56 ff ff ff       	jmp    404142 <___pformat_emit_xfloat.isra.0+0x3c2>
  4041ec:	8d 74 26 00          	lea    0x0(%esi,%eiz,1),%esi
  4041f0:	89 d9                	mov    %ebx,%ecx
  4041f2:	ba 01 00 00 00       	mov    $0x1,%edx
  4041f7:	8d 44 24 48          	lea    0x48(%esp),%eax
  4041fb:	e8 70 e5 ff ff       	call   402770 <___pformat_wputchars>
  404200:	e9 3d ff ff ff       	jmp    404142 <___pformat_emit_xfloat.isra.0+0x3c2>
  404205:	8d 76 00             	lea    0x0(%esi),%esi
  404208:	c7 43 08 ff ff ff ff 	movl   $0xffffffff,0x8(%ebx)
  40420f:	e9 9a fe ff ff       	jmp    4040ae <___pformat_emit_xfloat.isra.0+0x32e>
  404214:	8d 74 26 00          	lea    0x0(%esi,%eiz,1),%esi
  404218:	89 da                	mov    %ebx,%edx
  40421a:	b8 2b 00 00 00       	mov    $0x2b,%eax
  40421f:	e8 ec e4 ff ff       	call   402710 <___pformat_putc>
  404224:	e9 a9 fe ff ff       	jmp    4040d2 <___pformat_emit_xfloat.isra.0+0x352>
  404229:	8d b4 26 00 00 00 00 	lea    0x0(%esi,%eiz,1),%esi
  404230:	89 43 08             	mov    %eax,0x8(%ebx)
  404233:	e9 76 fe ff ff       	jmp    4040ae <___pformat_emit_xfloat.isra.0+0x32e>
  404238:	8d b4 26 00 00 00 00 	lea    0x0(%esi,%eiz,1),%esi
  40423f:	90                   	nop
  404240:	89 da                	mov    %ebx,%edx
  404242:	b8 20 00 00 00       	mov    $0x20,%eax
  404247:	e8 c4 e4 ff ff       	call   402710 <___pformat_putc>
  40424c:	e9 81 fe ff ff       	jmp    4040d2 <___pformat_emit_xfloat.isra.0+0x352>
  404251:	bd 02 00 00 00       	mov    $0x2,%ebp
  404256:	e9 a5 fc ff ff       	jmp    403f00 <___pformat_emit_xfloat.isra.0+0x180>
  40425b:	8d 74 26 00          	lea    0x0(%esi,%eiz,1),%esi
  40425f:	90                   	nop

00404260 <___mingw_pformat>:
  404260:	55                   	push   %ebp
  404261:	57                   	push   %edi
  404262:	56                   	push   %esi
  404263:	53                   	push   %ebx
  404264:	81 ec dc 00 00 00    	sub    $0xdc,%esp
  40426a:	8b 9c 24 fc 00 00 00 	mov    0xfc(%esp),%ebx
  404271:	8b bc 24 00 01 00 00 	mov    0x100(%esp),%edi
  404278:	e8 e3 3d 00 00       	call   408060 <__errno>
  40427d:	8b 00                	mov    (%eax),%eax
  40427f:	c7 84 24 ac 00 00 00 	movl   $0xffffffff,0xac(%esp)
  404286:	ff ff ff ff 
  40428a:	c7 84 24 b0 00 00 00 	movl   $0xffffffff,0xb0(%esp)
  404291:	ff ff ff ff 
  404295:	89 44 24 38          	mov    %eax,0x38(%esp)
  404299:	8b 84 24 f4 00 00 00 	mov    0xf4(%esp),%eax
  4042a0:	c7 84 24 b4 00 00 00 	movl   $0xfffffffd,0xb4(%esp)
  4042a7:	fd ff ff ff 
  4042ab:	89 84 24 a4 00 00 00 	mov    %eax,0xa4(%esp)
  4042b2:	8b 84 24 f0 00 00 00 	mov    0xf0(%esp),%eax
  4042b9:	c7 84 24 bc 00 00 00 	movl   $0x0,0xbc(%esp)
  4042c0:	00 00 00 00 
  4042c4:	c7 84 24 c4 00 00 00 	movl   $0x0,0xc4(%esp)
  4042cb:	00 00 00 00 
  4042cf:	25 00 60 00 00       	and    $0x6000,%eax
  4042d4:	89 44 24 2c          	mov    %eax,0x2c(%esp)
  4042d8:	89 84 24 a8 00 00 00 	mov    %eax,0xa8(%esp)
  4042df:	31 c0                	xor    %eax,%eax
  4042e1:	66 89 84 24 b8 00 00 	mov    %ax,0xb8(%esp)
  4042e8:	00 
  4042e9:	31 c0                	xor    %eax,%eax
  4042eb:	66 89 84 24 c0 00 00 	mov    %ax,0xc0(%esp)
  4042f2:	00 
  4042f3:	8b 84 24 f8 00 00 00 	mov    0xf8(%esp),%eax
  4042fa:	c7 84 24 cc 00 00 00 	movl   $0xffffffff,0xcc(%esp)
  404301:	ff ff ff ff 
  404305:	89 84 24 c8 00 00 00 	mov    %eax,0xc8(%esp)
  40430c:	0f be 03             	movsbl (%ebx),%eax
  40430f:	85 c0                	test   %eax,%eax
  404311:	0f 84 08 01 00 00    	je     40441f <___mingw_pformat+0x1bf>
  404317:	8d 6b 01             	lea    0x1(%ebx),%ebp
  40431a:	89 c1                	mov    %eax,%ecx
  40431c:	eb 5b                	jmp    404379 <___mingw_pformat+0x119>
  40431e:	66 90                	xchg   %ax,%ax
  404320:	8b 9c 24 a8 00 00 00 	mov    0xa8(%esp),%ebx
  404327:	f6 c7 40             	test   $0x40,%bh
  40432a:	75 10                	jne    40433c <___mingw_pformat+0xdc>
  40432c:	8b 94 24 c4 00 00 00 	mov    0xc4(%esp),%edx
  404333:	39 94 24 c8 00 00 00 	cmp    %edx,0xc8(%esp)
  40433a:	7e 21                	jle    40435d <___mingw_pformat+0xfd>
  40433c:	8b 94 24 a4 00 00 00 	mov    0xa4(%esp),%edx
  404343:	80 e7 20             	and    $0x20,%bh
  404346:	0f 85 94 00 00 00    	jne    4043e0 <___mingw_pformat+0x180>
  40434c:	8b 84 24 c4 00 00 00 	mov    0xc4(%esp),%eax
  404353:	88 0c 02             	mov    %cl,(%edx,%eax,1)
  404356:	8b 94 24 c4 00 00 00 	mov    0xc4(%esp),%edx
  40435d:	83 c2 01             	add    $0x1,%edx
  404360:	89 94 24 c4 00 00 00 	mov    %edx,0xc4(%esp)
  404367:	0f b6 4d 00          	movzbl 0x0(%ebp),%ecx
  40436b:	83 c5 01             	add    $0x1,%ebp
  40436e:	0f be c1             	movsbl %cl,%eax
  404371:	85 c0                	test   %eax,%eax
  404373:	0f 84 9f 00 00 00    	je     404418 <___mingw_pformat+0x1b8>
  404379:	83 f8 25             	cmp    $0x25,%eax
  40437c:	75 a2                	jne    404320 <___mingw_pformat+0xc0>
  40437e:	c7 84 24 b0 00 00 00 	movl   $0xffffffff,0xb0(%esp)
  404385:	ff ff ff ff 
  404389:	8b 44 24 2c          	mov    0x2c(%esp),%eax
  40438d:	c7 84 24 ac 00 00 00 	movl   $0xffffffff,0xac(%esp)
  404394:	ff ff ff ff 
  404398:	89 84 24 a8 00 00 00 	mov    %eax,0xa8(%esp)
  40439f:	0f b6 45 00          	movzbl 0x0(%ebp),%eax
  4043a3:	84 c0                	test   %al,%al
  4043a5:	74 71                	je     404418 <___mingw_pformat+0x1b8>
  4043a7:	8d 9c 24 ac 00 00 00 	lea    0xac(%esp),%ebx
  4043ae:	89 6c 24 34          	mov    %ebp,0x34(%esp)
  4043b2:	89 ee                	mov    %ebp,%esi
  4043b4:	31 c9                	xor    %ecx,%ecx
  4043b6:	89 5c 24 30          	mov    %ebx,0x30(%esp)
  4043ba:	c7 44 24 28 00 00 00 	movl   $0x0,0x28(%esp)
  4043c1:	00 
  4043c2:	8d 50 e0             	lea    -0x20(%eax),%edx
  4043c5:	8d 5e 01             	lea    0x1(%esi),%ebx
  4043c8:	0f be e8             	movsbl %al,%ebp
  4043cb:	80 fa 5a             	cmp    $0x5a,%dl
  4043ce:	77 60                	ja     404430 <___mingw_pformat+0x1d0>
  4043d0:	0f b6 d2             	movzbl %dl,%edx
  4043d3:	ff 24 95 08 a3 40 00 	jmp    *0x40a308(,%edx,4)
  4043da:	8d b6 00 00 00 00    	lea    0x0(%esi),%esi
  4043e0:	89 54 24 04          	mov    %edx,0x4(%esp)
  4043e4:	89 04 24             	mov    %eax,(%esp)
  4043e7:	e8 bc 3c 00 00       	call   4080a8 <_fputc>
  4043ec:	8b 94 24 c4 00 00 00 	mov    0xc4(%esp),%edx
  4043f3:	e9 65 ff ff ff       	jmp    40435d <___mingw_pformat+0xfd>
  4043f8:	c7 44 24 28 00 00 00 	movl   $0x0,0x28(%esp)
  4043ff:	00 
  404400:	0f b6 46 01          	movzbl 0x1(%esi),%eax
  404404:	b9 04 00 00 00       	mov    $0x4,%ecx
  404409:	89 de                	mov    %ebx,%esi
  40440b:	8d 74 26 00          	lea    0x0(%esi,%eiz,1),%esi
  40440f:	90                   	nop
  404410:	84 c0                	test   %al,%al
  404412:	75 ae                	jne    4043c2 <___mingw_pformat+0x162>
  404414:	8d 74 26 00          	lea    0x0(%esi,%eiz,1),%esi
  404418:	8b 84 24 c4 00 00 00 	mov    0xc4(%esp),%eax
  40441f:	81 c4 dc 00 00 00    	add    $0xdc,%esp
  404425:	5b                   	pop    %ebx
  404426:	5e                   	pop    %esi
  404427:	5f                   	pop    %edi
  404428:	5d                   	pop    %ebp
  404429:	c3                   	ret
  40442a:	8d b6 00 00 00 00    	lea    0x0(%esi),%esi
  404430:	83 e8 30             	sub    $0x30,%eax
  404433:	3c 09                	cmp    $0x9,%al
  404435:	0f 87 a5 07 00 00    	ja     404be0 <___mingw_pformat+0x980>
  40443b:	83 f9 03             	cmp    $0x3,%ecx
  40443e:	0f 87 9c 07 00 00    	ja     404be0 <___mingw_pformat+0x980>
  404444:	85 c9                	test   %ecx,%ecx
  404446:	0f 85 84 07 00 00    	jne    404bd0 <___mingw_pformat+0x970>
  40444c:	b9 01 00 00 00       	mov    $0x1,%ecx
  404451:	8b 44 24 30          	mov    0x30(%esp),%eax
  404455:	85 c0                	test   %eax,%eax
  404457:	0f 84 1b 07 00 00    	je     404b78 <___mingw_pformat+0x918>
  40445d:	8b 54 24 30          	mov    0x30(%esp),%edx
  404461:	8b 02                	mov    (%edx),%eax
  404463:	85 c0                	test   %eax,%eax
  404465:	0f 88 3d 08 00 00    	js     404ca8 <___mingw_pformat+0xa48>
  40446b:	8b 54 24 30          	mov    0x30(%esp),%edx
  40446f:	8d 04 80             	lea    (%eax,%eax,4),%eax
  404472:	8d 44 45 d0          	lea    -0x30(%ebp,%eax,2),%eax
  404476:	89 02                	mov    %eax,(%edx)
  404478:	0f b6 46 01          	movzbl 0x1(%esi),%eax
  40447c:	89 de                	mov    %ebx,%esi
  40447e:	eb 90                	jmp    404410 <___mingw_pformat+0x1b0>
  404480:	81 a4 24 a8 00 00 00 	andl   $0xfffffeff,0xa8(%esp)
  404487:	ff fe ff ff 
  40448b:	83 7c 24 28 03       	cmpl   $0x3,0x28(%esp)
  404490:	0f 84 62 08 00 00    	je     404cf8 <___mingw_pformat+0xa98>
  404496:	83 7c 24 28 02       	cmpl   $0x2,0x28(%esp)
  40449b:	8d 77 04             	lea    0x4(%edi),%esi
  40449e:	0f 84 7a 09 00 00    	je     404e1e <___mingw_pformat+0xbbe>
  4044a4:	8b 3f                	mov    (%edi),%edi
  4044a6:	31 d2                	xor    %edx,%edx
  4044a8:	83 7c 24 28 01       	cmpl   $0x1,0x28(%esp)
  4044ad:	89 f8                	mov    %edi,%eax
  4044af:	0f 84 b3 07 00 00    	je     404c68 <___mingw_pformat+0xa08>
  4044b5:	83 7c 24 28 05       	cmpl   $0x5,0x28(%esp)
  4044ba:	0f 84 de 09 00 00    	je     404e9e <___mingw_pformat+0xc3e>
  4044c0:	89 94 24 94 00 00 00 	mov    %edx,0x94(%esp)
  4044c7:	89 bc 24 90 00 00 00 	mov    %edi,0x90(%esp)
  4044ce:	89 f7                	mov    %esi,%edi
  4044d0:	8d 84 24 a4 00 00 00 	lea    0xa4(%esp),%eax
  4044d7:	83 fd 75             	cmp    $0x75,%ebp
  4044da:	89 44 24 10          	mov    %eax,0x10(%esp)
  4044de:	8b 84 24 90 00 00 00 	mov    0x90(%esp),%eax
  4044e5:	89 04 24             	mov    %eax,(%esp)
  4044e8:	8b 84 24 94 00 00 00 	mov    0x94(%esp),%eax
  4044ef:	89 44 24 04          	mov    %eax,0x4(%esp)
  4044f3:	8b 84 24 98 00 00 00 	mov    0x98(%esp),%eax
  4044fa:	89 44 24 08          	mov    %eax,0x8(%esp)
  4044fe:	8b 84 24 9c 00 00 00 	mov    0x9c(%esp),%eax
  404505:	89 44 24 0c          	mov    %eax,0xc(%esp)
  404509:	0f 84 9e 00 00 00    	je     4045ad <___mingw_pformat+0x34d>
  40450f:	89 e8                	mov    %ebp,%eax
  404511:	89 dd                	mov    %ebx,%ebp
  404513:	e8 f8 e5 ff ff       	call   402b10 <___pformat_xint>
  404518:	e9 4a fe ff ff       	jmp    404367 <___mingw_pformat+0x107>
  40451d:	81 8c 24 a8 00 00 00 	orl    $0x80,0xa8(%esp)
  404524:	80 00 00 00 
  404528:	83 7c 24 28 03       	cmpl   $0x3,0x28(%esp)
  40452d:	0f 84 1d 08 00 00    	je     404d50 <___mingw_pformat+0xaf0>
  404533:	8b 0f                	mov    (%edi),%ecx
  404535:	83 c7 04             	add    $0x4,%edi
  404538:	89 c8                	mov    %ecx,%eax
  40453a:	99                   	cltd
  40453b:	83 7c 24 28 02       	cmpl   $0x2,0x28(%esp)
  404540:	74 18                	je     40455a <___mingw_pformat+0x2fa>
  404542:	83 7c 24 28 01       	cmpl   $0x1,0x28(%esp)
  404547:	0f 84 37 07 00 00    	je     404c84 <___mingw_pformat+0xa24>
  40454d:	83 7c 24 28 05       	cmpl   $0x5,0x28(%esp)
  404552:	75 06                	jne    40455a <___mingw_pformat+0x2fa>
  404554:	0f be c9             	movsbl %cl,%ecx
  404557:	89 c8                	mov    %ecx,%eax
  404559:	99                   	cltd
  40455a:	89 84 24 90 00 00 00 	mov    %eax,0x90(%esp)
  404561:	89 94 24 94 00 00 00 	mov    %edx,0x94(%esp)
  404568:	89 d0                	mov    %edx,%eax
  40456a:	c1 f8 1f             	sar    $0x1f,%eax
  40456d:	99                   	cltd
  40456e:	89 c1                	mov    %eax,%ecx
  404570:	89 84 24 98 00 00 00 	mov    %eax,0x98(%esp)
  404577:	8d 84 24 a4 00 00 00 	lea    0xa4(%esp),%eax
  40457e:	89 44 24 10          	mov    %eax,0x10(%esp)
  404582:	8b 84 24 90 00 00 00 	mov    0x90(%esp),%eax
  404589:	89 94 24 9c 00 00 00 	mov    %edx,0x9c(%esp)
  404590:	89 04 24             	mov    %eax,(%esp)
  404593:	8b 84 24 94 00 00 00 	mov    0x94(%esp),%eax
  40459a:	89 4c 24 08          	mov    %ecx,0x8(%esp)
  40459e:	89 44 24 04          	mov    %eax,0x4(%esp)
  4045a2:	8b 84 24 9c 00 00 00 	mov    0x9c(%esp),%eax
  4045a9:	89 44 24 0c          	mov    %eax,0xc(%esp)
  4045ad:	e8 fe ea ff ff       	call   4030b0 <___pformat_int>
  4045b2:	89 dd                	mov    %ebx,%ebp
  4045b4:	e9 ae fd ff ff       	jmp    404367 <___mingw_pformat+0x107>
  4045b9:	8b 44 24 28          	mov    0x28(%esp),%eax
  4045bd:	8d 77 04             	lea    0x4(%edi),%esi
  4045c0:	83 e8 02             	sub    $0x2,%eax
  4045c3:	83 f8 01             	cmp    $0x1,%eax
  4045c6:	0f 86 ba 05 00 00    	jbe    404b86 <___mingw_pformat+0x926>
  4045cc:	8b 07                	mov    (%edi),%eax
  4045ce:	8d 94 24 a4 00 00 00 	lea    0xa4(%esp),%edx
  4045d5:	89 f7                	mov    %esi,%edi
  4045d7:	89 dd                	mov    %ebx,%ebp
  4045d9:	e8 42 e4 ff ff       	call   402a20 <___pformat_puts>
  4045de:	e9 84 fd ff ff       	jmp    404367 <___mingw_pformat+0x107>
  4045e3:	8b 54 24 28          	mov    0x28(%esp),%edx
  4045e7:	8b 07                	mov    (%edi),%eax
  4045e9:	8d 77 04             	lea    0x4(%edi),%esi
  4045ec:	c7 84 24 b0 00 00 00 	movl   $0xffffffff,0xb0(%esp)
  4045f3:	ff ff ff ff 
  4045f7:	83 ea 02             	sub    $0x2,%edx
  4045fa:	83 fa 01             	cmp    $0x1,%edx
  4045fd:	0f 86 4e 03 00 00    	jbe    404951 <___mingw_pformat+0x6f1>
  404603:	88 84 24 90 00 00 00 	mov    %al,0x90(%esp)
  40460a:	ba 01 00 00 00       	mov    $0x1,%edx
  40460f:	89 f7                	mov    %esi,%edi
  404611:	89 dd                	mov    %ebx,%ebp
  404613:	8d 8c 24 a4 00 00 00 	lea    0xa4(%esp),%ecx
  40461a:	8d 84 24 90 00 00 00 	lea    0x90(%esp),%eax
  404621:	e8 ba e2 ff ff       	call   4028e0 <___pformat_putchars>
  404626:	e9 3c fd ff ff       	jmp    404367 <___mingw_pformat+0x107>
  40462b:	8b 94 24 a8 00 00 00 	mov    0xa8(%esp),%edx
  404632:	83 ca 20             	or     $0x20,%edx
  404635:	89 94 24 a8 00 00 00 	mov    %edx,0xa8(%esp)
  40463c:	f6 c2 04             	test   $0x4,%dl
  40463f:	0f 84 e9 03 00 00    	je     404a2e <___mingw_pformat+0x7ce>
  404645:	db 2f                	fldt   (%edi)
  404647:	8d 77 0c             	lea    0xc(%edi),%esi
  40464a:	d9 e5                	fxam
  40464c:	9b df e0             	fstsw  %ax
  40464f:	66 25 00 45          	and    $0x4500,%ax
  404653:	66 3d 00 01          	cmp    $0x100,%ax
  404657:	0f 84 7b 06 00 00    	je     404cd8 <___mingw_pformat+0xa78>
  40465d:	d9 c0                	fld    %st(0)
  40465f:	db 7c 24 70          	fstpt  0x70(%esp)
  404663:	0f b7 4c 24 78       	movzwl 0x78(%esp),%ecx
  404668:	66 85 c9             	test   %cx,%cx
  40466b:	79 0a                	jns    404677 <___mingw_pformat+0x417>
  40466d:	80 ca 80             	or     $0x80,%dl
  404670:	89 94 24 a8 00 00 00 	mov    %edx,0xa8(%esp)
  404677:	d9 e5                	fxam
  404679:	9b df e0             	fstsw  %ax
  40467c:	66 25 00 45          	and    $0x4500,%ax
  404680:	66 3d 00 05          	cmp    $0x500,%ax
  404684:	0f 84 bb 07 00 00    	je     404e45 <___mingw_pformat+0xbe5>
  40468a:	db 7c 24 60          	fstpt  0x60(%esp)
  40468e:	8b 44 24 60          	mov    0x60(%esp),%eax
  404692:	8b 54 24 64          	mov    0x64(%esp),%edx
  404696:	66 81 e1 ff 7f       	and    $0x7fff,%cx
  40469b:	0f 85 71 05 00 00    	jne    404c12 <___mingw_pformat+0x9b2>
  4046a1:	89 d7                	mov    %edx,%edi
  4046a3:	09 c7                	or     %eax,%edi
  4046a5:	bf 02 c0 ff ff       	mov    $0xffffc002,%edi
  4046aa:	0f 45 cf             	cmovne %edi,%ecx
  4046ad:	8d bc 24 a4 00 00 00 	lea    0xa4(%esp),%edi
  4046b4:	89 3c 24             	mov    %edi,(%esp)
  4046b7:	e8 c4 f6 ff ff       	call   403d80 <___pformat_emit_xfloat.isra.0>
  4046bc:	e9 fc 04 00 00       	jmp    404bbd <___mingw_pformat+0x95d>
  4046c1:	85 c9                	test   %ecx,%ecx
  4046c3:	0f 85 af 04 00 00    	jne    404b78 <___mingw_pformat+0x918>
  4046c9:	81 8c 24 a8 00 00 00 	orl    $0x400,0xa8(%esp)
  4046d0:	00 04 00 00 
  4046d4:	0f b6 46 01          	movzbl 0x1(%esi),%eax
  4046d8:	89 de                	mov    %ebx,%esi
  4046da:	e9 31 fd ff ff       	jmp    404410 <___mingw_pformat+0x1b0>
  4046df:	83 f9 01             	cmp    $0x1,%ecx
  4046e2:	0f 86 ca 05 00 00    	jbe    404cb2 <___mingw_pformat+0xa52>
  4046e8:	0f b6 46 01          	movzbl 0x1(%esi),%eax
  4046ec:	b9 04 00 00 00       	mov    $0x4,%ecx
  4046f1:	89 de                	mov    %ebx,%esi
  4046f3:	e9 18 fd ff ff       	jmp    404410 <___mingw_pformat+0x1b0>
  4046f8:	0f b6 46 01          	movzbl 0x1(%esi),%eax
  4046fc:	3c 36                	cmp    $0x36,%al
  4046fe:	0f 84 67 06 00 00    	je     404d6b <___mingw_pformat+0xb0b>
  404704:	3c 33                	cmp    $0x33,%al
  404706:	0f 84 10 05 00 00    	je     404c1c <___mingw_pformat+0x9bc>
  40470c:	c7 44 24 28 00 00 00 	movl   $0x0,0x28(%esp)
  404713:	00 
  404714:	89 de                	mov    %ebx,%esi
  404716:	b9 04 00 00 00       	mov    $0x4,%ecx
  40471b:	e9 f0 fc ff ff       	jmp    404410 <___mingw_pformat+0x1b0>
  404720:	0f b6 46 01          	movzbl 0x1(%esi),%eax
  404724:	83 8c 24 a8 00 00 00 	orl    $0x4,0xa8(%esp)
  40472b:	04 
  40472c:	89 de                	mov    %ebx,%esi
  40472e:	b9 04 00 00 00       	mov    $0x4,%ecx
  404733:	e9 d8 fc ff ff       	jmp    404410 <___mingw_pformat+0x1b0>
  404738:	0f b6 46 01          	movzbl 0x1(%esi),%eax
  40473c:	3c 68                	cmp    $0x68,%al
  40473e:	0f 84 f3 05 00 00    	je     404d37 <___mingw_pformat+0xad7>
  404744:	c7 44 24 28 01 00 00 	movl   $0x1,0x28(%esp)
  40474b:	00 
  40474c:	89 de                	mov    %ebx,%esi
  40474e:	b9 04 00 00 00       	mov    $0x4,%ecx
  404753:	e9 b8 fc ff ff       	jmp    404410 <___mingw_pformat+0x1b0>
  404758:	0f b6 46 01          	movzbl 0x1(%esi),%eax
  40475c:	c7 44 24 28 03 00 00 	movl   $0x3,0x28(%esp)
  404763:	00 
  404764:	89 de                	mov    %ebx,%esi
  404766:	b9 04 00 00 00       	mov    $0x4,%ecx
  40476b:	e9 a0 fc ff ff       	jmp    404410 <___mingw_pformat+0x1b0>
  404770:	0f b6 46 01          	movzbl 0x1(%esi),%eax
  404774:	3c 6c                	cmp    $0x6c,%al
  404776:	0f 84 a2 05 00 00    	je     404d1e <___mingw_pformat+0xabe>
  40477c:	c7 44 24 28 02 00 00 	movl   $0x2,0x28(%esp)
  404783:	00 
  404784:	89 de                	mov    %ebx,%esi
  404786:	b9 04 00 00 00       	mov    $0x4,%ecx
  40478b:	e9 80 fc ff ff       	jmp    404410 <___mingw_pformat+0x1b0>
  404790:	8b 44 24 38          	mov    0x38(%esp),%eax
  404794:	89 dd                	mov    %ebx,%ebp
  404796:	89 04 24             	mov    %eax,(%esp)
  404799:	e8 4a 39 00 00       	call   4080e8 <_strerror>
  40479e:	8d 94 24 a4 00 00 00 	lea    0xa4(%esp),%edx
  4047a5:	e8 76 e2 ff ff       	call   402a20 <___pformat_puts>
  4047aa:	e9 b8 fb ff ff       	jmp    404367 <___mingw_pformat+0x107>
  4047af:	8b 84 24 a8 00 00 00 	mov    0xa8(%esp),%eax
  4047b6:	83 c8 20             	or     $0x20,%eax
  4047b9:	89 84 24 a8 00 00 00 	mov    %eax,0xa8(%esp)
  4047c0:	a8 04                	test   $0x4,%al
  4047c2:	0f 84 ef 01 00 00    	je     4049b7 <___mingw_pformat+0x757>
  4047c8:	db 2f                	fldt   (%edi)
  4047ca:	8d 77 0c             	lea    0xc(%edi),%esi
  4047cd:	8d 84 24 a4 00 00 00 	lea    0xa4(%esp),%eax
  4047d4:	89 dd                	mov    %ebx,%ebp
  4047d6:	89 f7                	mov    %esi,%edi
  4047d8:	db 3c 24             	fstpt  (%esp)
  4047db:	e8 60 f3 ff ff       	call   403b40 <___pformat_float>
  4047e0:	e9 82 fb ff ff       	jmp    404367 <___mingw_pformat+0x107>
  4047e5:	8b 84 24 a8 00 00 00 	mov    0xa8(%esp),%eax
  4047ec:	83 c8 20             	or     $0x20,%eax
  4047ef:	89 84 24 a8 00 00 00 	mov    %eax,0xa8(%esp)
  4047f6:	a8 04                	test   $0x4,%al
  4047f8:	0f 84 e5 01 00 00    	je     4049e3 <___mingw_pformat+0x783>
  4047fe:	db 2f                	fldt   (%edi)
  404800:	8d 77 0c             	lea    0xc(%edi),%esi
  404803:	8d 84 24 a4 00 00 00 	lea    0xa4(%esp),%eax
  40480a:	89 dd                	mov    %ebx,%ebp
  40480c:	89 f7                	mov    %esi,%edi
  40480e:	db 3c 24             	fstpt  (%esp)
  404811:	e8 fa f3 ff ff       	call   403c10 <___pformat_gfloat>
  404816:	e9 4c fb ff ff       	jmp    404367 <___mingw_pformat+0x107>
  40481b:	83 7c 24 28 05       	cmpl   $0x5,0x28(%esp)
  404820:	8b 94 24 c4 00 00 00 	mov    0xc4(%esp),%edx
  404827:	8d 47 04             	lea    0x4(%edi),%eax
  40482a:	8b 0f                	mov    (%edi),%ecx
  40482c:	0f 84 e1 04 00 00    	je     404d13 <___mingw_pformat+0xab3>
  404832:	83 7c 24 28 01       	cmpl   $0x1,0x28(%esp)
  404837:	0f 84 fc 05 00 00    	je     404e39 <___mingw_pformat+0xbd9>
  40483d:	83 7c 24 28 02       	cmpl   $0x2,0x28(%esp)
  404842:	0f 84 55 04 00 00    	je     404c9d <___mingw_pformat+0xa3d>
  404848:	83 7c 24 28 03       	cmpl   $0x3,0x28(%esp)
  40484d:	89 c7                	mov    %eax,%edi
  40484f:	89 11                	mov    %edx,(%ecx)
  404851:	89 dd                	mov    %ebx,%ebp
  404853:	0f 85 0e fb ff ff    	jne    404367 <___mingw_pformat+0x107>
  404859:	89 d6                	mov    %edx,%esi
  40485b:	c1 fe 1f             	sar    $0x1f,%esi
  40485e:	89 71 04             	mov    %esi,0x4(%ecx)
  404861:	e9 01 fb ff ff       	jmp    404367 <___mingw_pformat+0x107>
  404866:	8d b4 26 00 00 00 00 	lea    0x0(%esi,%eiz,1),%esi
  40486d:	8d 76 00             	lea    0x0(%esi),%esi
  404870:	8b 84 24 a8 00 00 00 	mov    0xa8(%esp),%eax
  404877:	83 c8 20             	or     $0x20,%eax
  40487a:	89 84 24 a8 00 00 00 	mov    %eax,0xa8(%esp)
  404881:	a8 04                	test   $0x4,%al
  404883:	0f 84 02 01 00 00    	je     40498b <___mingw_pformat+0x72b>
  404889:	db 2f                	fldt   (%edi)
  40488b:	8d 77 0c             	lea    0xc(%edi),%esi
  40488e:	8d 84 24 a4 00 00 00 	lea    0xa4(%esp),%eax
  404895:	89 dd                	mov    %ebx,%ebp
  404897:	89 f7                	mov    %esi,%edi
  404899:	db 3c 24             	fstpt  (%esp)
  40489c:	e8 0f f2 ff ff       	call   403ab0 <___pformat_efloat>
  4048a1:	e9 c1 fa ff ff       	jmp    404367 <___mingw_pformat+0x107>
  4048a6:	85 c9                	test   %ecx,%ecx
  4048a8:	75 11                	jne    4048bb <___mingw_pformat+0x65b>
  4048aa:	8b 44 24 2c          	mov    0x2c(%esp),%eax
  4048ae:	39 84 24 a8 00 00 00 	cmp    %eax,0xa8(%esp)
  4048b5:	0f 84 80 03 00 00    	je     404c3b <___mingw_pformat+0x9db>
  4048bb:	8b 07                	mov    (%edi),%eax
  4048bd:	8d 77 04             	lea    0x4(%edi),%esi
  4048c0:	89 dd                	mov    %ebx,%ebp
  4048c2:	c7 84 24 94 00 00 00 	movl   $0x0,0x94(%esp)
  4048c9:	00 00 00 00 
  4048cd:	c7 84 24 98 00 00 00 	movl   $0x0,0x98(%esp)
  4048d4:	00 00 00 00 
  4048d8:	89 f7                	mov    %esi,%edi
  4048da:	89 84 24 90 00 00 00 	mov    %eax,0x90(%esp)
  4048e1:	8d 84 24 a4 00 00 00 	lea    0xa4(%esp),%eax
  4048e8:	89 44 24 10          	mov    %eax,0x10(%esp)
  4048ec:	8b 84 24 90 00 00 00 	mov    0x90(%esp),%eax
  4048f3:	c7 84 24 9c 00 00 00 	movl   $0x0,0x9c(%esp)
  4048fa:	00 00 00 00 
  4048fe:	89 04 24             	mov    %eax,(%esp)
  404901:	8b 84 24 94 00 00 00 	mov    0x94(%esp),%eax
  404908:	c7 44 24 08 00 00 00 	movl   $0x0,0x8(%esp)
  40490f:	00 
  404910:	89 44 24 04          	mov    %eax,0x4(%esp)
  404914:	b8 78 00 00 00       	mov    $0x78,%eax
  404919:	c7 44 24 0c 00 00 00 	movl   $0x0,0xc(%esp)
  404920:	00 
  404921:	e8 ea e1 ff ff       	call   402b10 <___pformat_xint>
  404926:	e9 3c fa ff ff       	jmp    404367 <___mingw_pformat+0x107>
  40492b:	8d 94 24 a4 00 00 00 	lea    0xa4(%esp),%edx
  404932:	b8 25 00 00 00       	mov    $0x25,%eax
  404937:	89 dd                	mov    %ebx,%ebp
  404939:	e8 d2 dd ff ff       	call   402710 <___pformat_putc>
  40493e:	e9 24 fa ff ff       	jmp    404367 <___mingw_pformat+0x107>
  404943:	c7 84 24 b0 00 00 00 	movl   $0xffffffff,0xb0(%esp)
  40494a:	ff ff ff ff 
  40494e:	8d 77 04             	lea    0x4(%edi),%esi
  404951:	8b 07                	mov    (%edi),%eax
  404953:	8d 8c 24 a4 00 00 00 	lea    0xa4(%esp),%ecx
  40495a:	ba 01 00 00 00       	mov    $0x1,%edx
  40495f:	89 f7                	mov    %esi,%edi
  404961:	89 dd                	mov    %ebx,%ebp
  404963:	66 89 84 24 90 00 00 	mov    %ax,0x90(%esp)
  40496a:	00 
  40496b:	8d 84 24 90 00 00 00 	lea    0x90(%esp),%eax
  404972:	e8 f9 dd ff ff       	call   402770 <___pformat_wputchars>
  404977:	e9 eb f9 ff ff       	jmp    404367 <___mingw_pformat+0x107>
  40497c:	8b 84 24 a8 00 00 00 	mov    0xa8(%esp),%eax
  404983:	a8 04                	test   $0x4,%al
  404985:	0f 85 fe fe ff ff    	jne    404889 <___mingw_pformat+0x629>
  40498b:	dd 07                	fldl   (%edi)
  40498d:	8d 77 08             	lea    0x8(%edi),%esi
  404990:	8d 84 24 a4 00 00 00 	lea    0xa4(%esp),%eax
  404997:	89 dd                	mov    %ebx,%ebp
  404999:	89 f7                	mov    %esi,%edi
  40499b:	db 3c 24             	fstpt  (%esp)
  40499e:	e8 0d f1 ff ff       	call   403ab0 <___pformat_efloat>
  4049a3:	e9 bf f9 ff ff       	jmp    404367 <___mingw_pformat+0x107>
  4049a8:	8b 84 24 a8 00 00 00 	mov    0xa8(%esp),%eax
  4049af:	a8 04                	test   $0x4,%al
  4049b1:	0f 85 11 fe ff ff    	jne    4047c8 <___mingw_pformat+0x568>
  4049b7:	dd 07                	fldl   (%edi)
  4049b9:	8d 77 08             	lea    0x8(%edi),%esi
  4049bc:	8d 84 24 a4 00 00 00 	lea    0xa4(%esp),%eax
  4049c3:	89 dd                	mov    %ebx,%ebp
  4049c5:	89 f7                	mov    %esi,%edi
  4049c7:	db 3c 24             	fstpt  (%esp)
  4049ca:	e8 71 f1 ff ff       	call   403b40 <___pformat_float>
  4049cf:	e9 93 f9 ff ff       	jmp    404367 <___mingw_pformat+0x107>
  4049d4:	8b 84 24 a8 00 00 00 	mov    0xa8(%esp),%eax
  4049db:	a8 04                	test   $0x4,%al
  4049dd:	0f 85 1b fe ff ff    	jne    4047fe <___mingw_pformat+0x59e>
  4049e3:	dd 07                	fldl   (%edi)
  4049e5:	8d 77 08             	lea    0x8(%edi),%esi
  4049e8:	8d 84 24 a4 00 00 00 	lea    0xa4(%esp),%eax
  4049ef:	89 dd                	mov    %ebx,%ebp
  4049f1:	89 f7                	mov    %esi,%edi
  4049f3:	db 3c 24             	fstpt  (%esp)
  4049f6:	e8 15 f2 ff ff       	call   403c10 <___pformat_gfloat>
  4049fb:	e9 67 f9 ff ff       	jmp    404367 <___mingw_pformat+0x107>
  404a00:	85 c9                	test   %ecx,%ecx
  404a02:	0f 85 be 01 00 00    	jne    404bc6 <___mingw_pformat+0x966>
  404a08:	81 8c 24 a8 00 00 00 	orl    $0x200,0xa8(%esp)
  404a0f:	00 02 00 00 
  404a13:	0f b6 46 01          	movzbl 0x1(%esi),%eax
  404a17:	89 de                	mov    %ebx,%esi
  404a19:	e9 f2 f9 ff ff       	jmp    404410 <___mingw_pformat+0x1b0>
  404a1e:	8b 94 24 a8 00 00 00 	mov    0xa8(%esp),%edx
  404a25:	f6 c2 04             	test   $0x4,%dl
  404a28:	0f 85 17 fc ff ff    	jne    404645 <___mingw_pformat+0x3e5>
  404a2e:	dd 07                	fldl   (%edi)
  404a30:	8d 77 08             	lea    0x8(%edi),%esi
  404a33:	d9 c0                	fld    %st(0)
  404a35:	d9 e5                	fxam
  404a37:	9b df e0             	fstsw  %ax
  404a3a:	66 25 00 45          	and    $0x4500,%ax
  404a3e:	66 3d 00 01          	cmp    $0x100,%ax
  404a42:	0f 84 94 02 00 00    	je     404cdc <___mingw_pformat+0xa7c>
  404a48:	db 7c 24 50          	fstpt  0x50(%esp)
  404a4c:	db 6c 24 50          	fldt   0x50(%esp)
  404a50:	0f b7 7c 24 58       	movzwl 0x58(%esp),%edi
  404a55:	66 85 ff             	test   %di,%di
  404a58:	79 0a                	jns    404a64 <___mingw_pformat+0x804>
  404a5a:	80 ca 80             	or     $0x80,%dl
  404a5d:	89 94 24 a8 00 00 00 	mov    %edx,0xa8(%esp)
  404a64:	d9 e5                	fxam
  404a66:	9b df e0             	fstsw  %ax
  404a69:	dd d8                	fstp   %st(0)
  404a6b:	66 25 00 45          	and    $0x4500,%ax
  404a6f:	66 3d 00 05          	cmp    $0x500,%ax
  404a73:	0f 84 eb 03 00 00    	je     404e64 <___mingw_pformat+0xc04>
  404a79:	db 7c 24 40          	fstpt  0x40(%esp)
  404a7d:	8b 44 24 40          	mov    0x40(%esp),%eax
  404a81:	8b 54 24 44          	mov    0x44(%esp),%edx
  404a85:	66 81 e7 ff 7f       	and    $0x7fff,%di
  404a8a:	0f 84 7d 03 00 00    	je     404e0d <___mingw_pformat+0xbad>
  404a90:	66 81 ff 00 3c       	cmp    $0x3c00,%di
  404a95:	0f 8f ba 01 00 00    	jg     404c55 <___mingw_pformat+0x9f5>
  404a9b:	0f bf ef             	movswl %di,%ebp
  404a9e:	b9 01 3c 00 00       	mov    $0x3c01,%ecx
  404aa3:	29 e9                	sub    %ebp,%ecx
  404aa5:	31 ed                	xor    %ebp,%ebp
  404aa7:	0f ad d0             	shrd   %cl,%edx,%eax
  404aaa:	d3 ea                	shr    %cl,%edx
  404aac:	f6 c1 20             	test   $0x20,%cl
  404aaf:	0f 45 c2             	cmovne %edx,%eax
  404ab2:	0f 45 d5             	cmovne %ebp,%edx
  404ab5:	01 f9                	add    %edi,%ecx
  404ab7:	8d b9 04 c0 ff ff    	lea    -0x3ffc(%ecx),%edi
  404abd:	8d 8c 24 a4 00 00 00 	lea    0xa4(%esp),%ecx
  404ac4:	0f ac d0 03          	shrd   $0x3,%edx,%eax
  404ac8:	c1 ea 03             	shr    $0x3,%edx
  404acb:	89 0c 24             	mov    %ecx,(%esp)
  404ace:	89 f9                	mov    %edi,%ecx
  404ad0:	e8 ab f2 ff ff       	call   403d80 <___pformat_emit_xfloat.isra.0>
  404ad5:	e9 e3 00 00 00       	jmp    404bbd <___mingw_pformat+0x95d>
  404ada:	85 c9                	test   %ecx,%ecx
  404adc:	0f 85 96 00 00 00    	jne    404b78 <___mingw_pformat+0x918>
  404ae2:	0f b6 46 01          	movzbl 0x1(%esi),%eax
  404ae6:	83 8c 24 a8 00 00 00 	orl    $0x40,0xa8(%esp)
  404aed:	40 
  404aee:	89 de                	mov    %ebx,%esi
  404af0:	e9 1b f9 ff ff       	jmp    404410 <___mingw_pformat+0x1b0>
  404af5:	85 c9                	test   %ecx,%ecx
  404af7:	75 7f                	jne    404b78 <___mingw_pformat+0x918>
  404af9:	81 8c 24 a8 00 00 00 	orl    $0x800,0xa8(%esp)
  404b00:	00 08 00 00 
  404b04:	0f b6 46 01          	movzbl 0x1(%esi),%eax
  404b08:	89 de                	mov    %ebx,%esi
  404b0a:	e9 01 f9 ff ff       	jmp    404410 <___mingw_pformat+0x1b0>
  404b0f:	8b 54 24 30          	mov    0x30(%esp),%edx
  404b13:	85 d2                	test   %edx,%edx
  404b15:	0f 84 cd fb ff ff    	je     4046e8 <___mingw_pformat+0x488>
  404b1b:	f7 c1 fd ff ff ff    	test   $0xfffffffd,%ecx
  404b21:	0f 85 d3 00 00 00    	jne    404bfa <___mingw_pformat+0x99a>
  404b27:	8b 07                	mov    (%edi),%eax
  404b29:	8d 57 04             	lea    0x4(%edi),%edx
  404b2c:	8b 7c 24 30          	mov    0x30(%esp),%edi
  404b30:	89 07                	mov    %eax,(%edi)
  404b32:	85 c0                	test   %eax,%eax
  404b34:	0f 88 49 03 00 00    	js     404e83 <___mingw_pformat+0xc23>
  404b3a:	0f b6 46 01          	movzbl 0x1(%esi),%eax
  404b3e:	c7 44 24 30 00 00 00 	movl   $0x0,0x30(%esp)
  404b45:	00 
  404b46:	89 d7                	mov    %edx,%edi
  404b48:	89 de                	mov    %ebx,%esi
  404b4a:	e9 c1 f8 ff ff       	jmp    404410 <___mingw_pformat+0x1b0>
  404b4f:	85 c9                	test   %ecx,%ecx
  404b51:	75 25                	jne    404b78 <___mingw_pformat+0x918>
  404b53:	81 8c 24 a8 00 00 00 	orl    $0x100,0xa8(%esp)
  404b5a:	00 01 00 00 
  404b5e:	0f b6 46 01          	movzbl 0x1(%esi),%eax
  404b62:	89 de                	mov    %ebx,%esi
  404b64:	e9 a7 f8 ff ff       	jmp    404410 <___mingw_pformat+0x1b0>
  404b69:	85 c9                	test   %ecx,%ecx
  404b6b:	0f 84 1d 02 00 00    	je     404d8e <___mingw_pformat+0xb2e>
  404b71:	8d b4 26 00 00 00 00 	lea    0x0(%esi,%eiz,1),%esi
  404b78:	0f b6 46 01          	movzbl 0x1(%esi),%eax
  404b7c:	89 de                	mov    %ebx,%esi
  404b7e:	e9 8d f8 ff ff       	jmp    404410 <___mingw_pformat+0x1b0>
  404b83:	8d 77 04             	lea    0x4(%edi),%esi
  404b86:	8b 3f                	mov    (%edi),%edi
  404b88:	b8 f0 a2 40 00       	mov    $0x40a2f0,%eax
  404b8d:	85 ff                	test   %edi,%edi
  404b8f:	0f 44 f8             	cmove  %eax,%edi
  404b92:	8b 84 24 b0 00 00 00 	mov    0xb0(%esp),%eax
  404b99:	85 c0                	test   %eax,%eax
  404b9b:	0f 88 5f 02 00 00    	js     404e00 <___mingw_pformat+0xba0>
  404ba1:	89 44 24 04          	mov    %eax,0x4(%esp)
  404ba5:	89 3c 24             	mov    %edi,(%esp)
  404ba8:	e8 83 2d 00 00       	call   407930 <_wcsnlen>
  404bad:	89 c2                	mov    %eax,%edx
  404baf:	8d 8c 24 a4 00 00 00 	lea    0xa4(%esp),%ecx
  404bb6:	89 f8                	mov    %edi,%eax
  404bb8:	e8 b3 db ff ff       	call   402770 <___pformat_wputchars>
  404bbd:	89 f7                	mov    %esi,%edi
  404bbf:	89 dd                	mov    %ebx,%ebp
  404bc1:	e9 a1 f7 ff ff       	jmp    404367 <___mingw_pformat+0x107>
  404bc6:	83 f9 03             	cmp    $0x3,%ecx
  404bc9:	77 15                	ja     404be0 <___mingw_pformat+0x980>
  404bcb:	bd 30 00 00 00       	mov    $0x30,%ebp
  404bd0:	83 f9 02             	cmp    $0x2,%ecx
  404bd3:	b8 03 00 00 00       	mov    $0x3,%eax
  404bd8:	0f 44 c8             	cmove  %eax,%ecx
  404bdb:	e9 71 f8 ff ff       	jmp    404451 <___mingw_pformat+0x1f1>
  404be0:	8d 94 24 a4 00 00 00 	lea    0xa4(%esp),%edx
  404be7:	b8 25 00 00 00       	mov    $0x25,%eax
  404bec:	8b 6c 24 34          	mov    0x34(%esp),%ebp
  404bf0:	e8 1b db ff ff       	call   402710 <___pformat_putc>
  404bf5:	e9 6d f7 ff ff       	jmp    404367 <___mingw_pformat+0x107>
  404bfa:	0f b6 46 01          	movzbl 0x1(%esi),%eax
  404bfe:	c7 44 24 30 00 00 00 	movl   $0x0,0x30(%esp)
  404c05:	00 
  404c06:	89 de                	mov    %ebx,%esi
  404c08:	b9 04 00 00 00       	mov    $0x4,%ecx
  404c0d:	e9 fe f7 ff ff       	jmp    404410 <___mingw_pformat+0x1b0>
  404c12:	66 81 e9 ff 3f       	sub    $0x3fff,%cx
  404c17:	e9 91 fa ff ff       	jmp    4046ad <___mingw_pformat+0x44d>
  404c1c:	80 7e 02 32          	cmpb   $0x32,0x2(%esi)
  404c20:	75 be                	jne    404be0 <___mingw_pformat+0x980>
  404c22:	0f b6 46 03          	movzbl 0x3(%esi),%eax
  404c26:	c7 44 24 28 02 00 00 	movl   $0x2,0x28(%esp)
  404c2d:	00 
  404c2e:	83 c6 03             	add    $0x3,%esi
  404c31:	b9 04 00 00 00       	mov    $0x4,%ecx
  404c36:	e9 d5 f7 ff ff       	jmp    404410 <___mingw_pformat+0x1b0>
  404c3b:	c7 84 24 b0 00 00 00 	movl   $0x8,0xb0(%esp)
  404c42:	08 00 00 00 
  404c46:	80 cc 02             	or     $0x2,%ah
  404c49:	89 84 24 a8 00 00 00 	mov    %eax,0xa8(%esp)
  404c50:	e9 66 fc ff ff       	jmp    4048bb <___mingw_pformat+0x65b>
  404c55:	66 85 ff             	test   %di,%di
  404c58:	0f 84 af 01 00 00    	je     404e0d <___mingw_pformat+0xbad>
  404c5e:	89 f9                	mov    %edi,%ecx
  404c60:	e9 52 fe ff ff       	jmp    404ab7 <___mingw_pformat+0x857>
  404c65:	8d 76 00             	lea    0x0(%esi),%esi
  404c68:	c7 84 24 94 00 00 00 	movl   $0x0,0x94(%esp)
  404c6f:	00 00 00 00 
  404c73:	0f b7 ff             	movzwl %di,%edi
  404c76:	89 bc 24 90 00 00 00 	mov    %edi,0x90(%esp)
  404c7d:	89 f7                	mov    %esi,%edi
  404c7f:	e9 4c f8 ff ff       	jmp    4044d0 <___mingw_pformat+0x270>
  404c84:	0f bf c9             	movswl %cx,%ecx
  404c87:	89 c8                	mov    %ecx,%eax
  404c89:	89 8c 24 90 00 00 00 	mov    %ecx,0x90(%esp)
  404c90:	99                   	cltd
  404c91:	89 94 24 94 00 00 00 	mov    %edx,0x94(%esp)
  404c98:	e9 cb f8 ff ff       	jmp    404568 <___mingw_pformat+0x308>
  404c9d:	89 11                	mov    %edx,(%ecx)
  404c9f:	89 c7                	mov    %eax,%edi
  404ca1:	89 dd                	mov    %ebx,%ebp
  404ca3:	e9 bf f6 ff ff       	jmp    404367 <___mingw_pformat+0x107>
  404ca8:	83 ed 30             	sub    $0x30,%ebp
  404cab:	89 2a                	mov    %ebp,(%edx)
  404cad:	e9 c6 fe ff ff       	jmp    404b78 <___mingw_pformat+0x918>
  404cb2:	8d 8c 24 b0 00 00 00 	lea    0xb0(%esp),%ecx
  404cb9:	0f b6 46 01          	movzbl 0x1(%esi),%eax
  404cbd:	c7 84 24 b0 00 00 00 	movl   $0x0,0xb0(%esp)
  404cc4:	00 00 00 00 
  404cc8:	89 de                	mov    %ebx,%esi
  404cca:	89 4c 24 30          	mov    %ecx,0x30(%esp)
  404cce:	b9 02 00 00 00       	mov    $0x2,%ecx
  404cd3:	e9 38 f7 ff ff       	jmp    404410 <___mingw_pformat+0x1b0>
  404cd8:	dd d8                	fstp   %st(0)
  404cda:	eb 04                	jmp    404ce0 <___mingw_pformat+0xa80>
  404cdc:	dd d8                	fstp   %st(0)
  404cde:	dd d8                	fstp   %st(0)
  404ce0:	8d 8c 24 a4 00 00 00 	lea    0xa4(%esp),%ecx
  404ce7:	ba fe a2 40 00       	mov    $0x40a2fe,%edx
  404cec:	31 c0                	xor    %eax,%eax
  404cee:	e8 8d dd ff ff       	call   402a80 <___pformat_emit_inf_or_nan>
  404cf3:	e9 c5 fe ff ff       	jmp    404bbd <___mingw_pformat+0x95d>
  404cf8:	8b 07                	mov    (%edi),%eax
  404cfa:	8b 57 04             	mov    0x4(%edi),%edx
  404cfd:	83 c7 08             	add    $0x8,%edi
  404d00:	89 84 24 90 00 00 00 	mov    %eax,0x90(%esp)
  404d07:	89 94 24 94 00 00 00 	mov    %edx,0x94(%esp)
  404d0e:	e9 bd f7 ff ff       	jmp    4044d0 <___mingw_pformat+0x270>
  404d13:	88 11                	mov    %dl,(%ecx)
  404d15:	89 c7                	mov    %eax,%edi
  404d17:	89 dd                	mov    %ebx,%ebp
  404d19:	e9 49 f6 ff ff       	jmp    404367 <___mingw_pformat+0x107>
  404d1e:	0f b6 46 02          	movzbl 0x2(%esi),%eax
  404d22:	c7 44 24 28 03 00 00 	movl   $0x3,0x28(%esp)
  404d29:	00 
  404d2a:	83 c6 02             	add    $0x2,%esi
  404d2d:	b9 04 00 00 00       	mov    $0x4,%ecx
  404d32:	e9 d9 f6 ff ff       	jmp    404410 <___mingw_pformat+0x1b0>
  404d37:	0f b6 46 02          	movzbl 0x2(%esi),%eax
  404d3b:	c7 44 24 28 05 00 00 	movl   $0x5,0x28(%esp)
  404d42:	00 
  404d43:	83 c6 02             	add    $0x2,%esi
  404d46:	b9 04 00 00 00       	mov    $0x4,%ecx
  404d4b:	e9 c0 f6 ff ff       	jmp    404410 <___mingw_pformat+0x1b0>
  404d50:	8b 07                	mov    (%edi),%eax
  404d52:	8b 57 04             	mov    0x4(%edi),%edx
  404d55:	83 c7 08             	add    $0x8,%edi
  404d58:	89 84 24 90 00 00 00 	mov    %eax,0x90(%esp)
  404d5f:	89 94 24 94 00 00 00 	mov    %edx,0x94(%esp)
  404d66:	e9 fd f7 ff ff       	jmp    404568 <___mingw_pformat+0x308>
  404d6b:	80 7e 02 34          	cmpb   $0x34,0x2(%esi)
  404d6f:	0f 85 6b fe ff ff    	jne    404be0 <___mingw_pformat+0x980>
  404d75:	0f b6 46 03          	movzbl 0x3(%esi),%eax
  404d79:	c7 44 24 28 03 00 00 	movl   $0x3,0x28(%esp)
  404d80:	00 
  404d81:	83 c6 03             	add    $0x3,%esi
